
CONTROL_MCU.elf:     file format elf32-avr

Sections:
Idx Name          Size      VMA       LMA       File off  Algn
  0 .text         00001860  00000000  00000000  00000094  2**1
                  CONTENTS, ALLOC, LOAD, READONLY, CODE
  1 .data         00000012  00800060  00001860  000018f4  2**0
                  CONTENTS, ALLOC, LOAD, DATA
  2 .bss          0000000a  00800072  00800072  00001906  2**0
                  ALLOC
  3 .stab         000026a0  00000000  00000000  00001908  2**2
                  CONTENTS, READONLY, DEBUGGING
  4 .stabstr      00001309  00000000  00000000  00003fa8  2**0
                  CONTENTS, READONLY, DEBUGGING

Disassembly of section .text:

00000000 <__vectors>:
       0:	0c 94 2a 00 	jmp	0x54	; 0x54 <__ctors_end>
       4:	0c 94 47 00 	jmp	0x8e	; 0x8e <__bad_interrupt>
       8:	0c 94 47 00 	jmp	0x8e	; 0x8e <__bad_interrupt>
       c:	0c 94 04 0a 	jmp	0x1408	; 0x1408 <__vector_3>
      10:	0c 94 ca 09 	jmp	0x1394	; 0x1394 <__vector_4>
      14:	0c 94 47 00 	jmp	0x8e	; 0x8e <__bad_interrupt>
      18:	0c 94 90 09 	jmp	0x1320	; 0x1320 <__vector_6>
      1c:	0c 94 47 00 	jmp	0x8e	; 0x8e <__bad_interrupt>
      20:	0c 94 56 09 	jmp	0x12ac	; 0x12ac <__vector_8>
      24:	0c 94 e3 08 	jmp	0x11c6	; 0x11c6 <__vector_9>
      28:	0c 94 47 00 	jmp	0x8e	; 0x8e <__bad_interrupt>
      2c:	0c 94 47 00 	jmp	0x8e	; 0x8e <__bad_interrupt>
      30:	0c 94 47 00 	jmp	0x8e	; 0x8e <__bad_interrupt>
      34:	0c 94 47 00 	jmp	0x8e	; 0x8e <__bad_interrupt>
      38:	0c 94 47 00 	jmp	0x8e	; 0x8e <__bad_interrupt>
      3c:	0c 94 47 00 	jmp	0x8e	; 0x8e <__bad_interrupt>
      40:	0c 94 47 00 	jmp	0x8e	; 0x8e <__bad_interrupt>
      44:	0c 94 47 00 	jmp	0x8e	; 0x8e <__bad_interrupt>
      48:	0c 94 47 00 	jmp	0x8e	; 0x8e <__bad_interrupt>
      4c:	0c 94 1c 09 	jmp	0x1238	; 0x1238 <__vector_19>
      50:	0c 94 47 00 	jmp	0x8e	; 0x8e <__bad_interrupt>

00000054 <__ctors_end>:
      54:	11 24       	eor	r1, r1
      56:	1f be       	out	0x3f, r1	; 63
      58:	cf e5       	ldi	r28, 0x5F	; 95
      5a:	d4 e0       	ldi	r29, 0x04	; 4
      5c:	de bf       	out	0x3e, r29	; 62
      5e:	cd bf       	out	0x3d, r28	; 61

00000060 <__do_copy_data>:
      60:	10 e0       	ldi	r17, 0x00	; 0
      62:	a0 e6       	ldi	r26, 0x60	; 96
      64:	b0 e0       	ldi	r27, 0x00	; 0
      66:	e0 e6       	ldi	r30, 0x60	; 96
      68:	f8 e1       	ldi	r31, 0x18	; 24
      6a:	02 c0       	rjmp	.+4      	; 0x70 <.do_copy_data_start>

0000006c <.do_copy_data_loop>:
      6c:	05 90       	lpm	r0, Z+
      6e:	0d 92       	st	X+, r0

00000070 <.do_copy_data_start>:
      70:	a2 37       	cpi	r26, 0x72	; 114
      72:	b1 07       	cpc	r27, r17
      74:	d9 f7       	brne	.-10     	; 0x6c <.do_copy_data_loop>

00000076 <__do_clear_bss>:
      76:	10 e0       	ldi	r17, 0x00	; 0
      78:	a2 e7       	ldi	r26, 0x72	; 114
      7a:	b0 e0       	ldi	r27, 0x00	; 0
      7c:	01 c0       	rjmp	.+2      	; 0x80 <.do_clear_bss_start>

0000007e <.do_clear_bss_loop>:
      7e:	1d 92       	st	X+, r1

00000080 <.do_clear_bss_start>:
      80:	ac 37       	cpi	r26, 0x7C	; 124
      82:	b1 07       	cpc	r27, r17
      84:	e1 f7       	brne	.-8      	; 0x7e <.do_clear_bss_loop>
      86:	0e 94 3e 01 	call	0x27c	; 0x27c <main>
      8a:	0c 94 2e 0c 	jmp	0x185c	; 0x185c <_exit>

0000008e <__bad_interrupt>:
      8e:	0c 94 00 00 	jmp	0	; 0x0 <__vectors>

00000092 <BUZZER_Init>:
/*
 * Description:
 * Initialize buzzer by specifying its pin as output pin.
 */
void BUZZER_Init( void )
{
      92:	df 93       	push	r29
      94:	cf 93       	push	r28
      96:	cd b7       	in	r28, 0x3d	; 61
      98:	de b7       	in	r29, 0x3e	; 62
	GPIO_setupPinDirection(BUZZER_PORT_ID, BUZZER_PIN_ID, PIN_OUTPUT);
      9a:	81 e0       	ldi	r24, 0x01	; 1
      9c:	61 e0       	ldi	r22, 0x01	; 1
      9e:	41 e0       	ldi	r20, 0x01	; 1
      a0:	0e 94 3f 04 	call	0x87e	; 0x87e <GPIO_setupPinDirection>
}
      a4:	cf 91       	pop	r28
      a6:	df 91       	pop	r29
      a8:	08 95       	ret

000000aa <BUZZER_On>:
/*
 * Description:
 * Turn on buzzer.
 */
void BUZZER_On( void )
{
      aa:	df 93       	push	r29
      ac:	cf 93       	push	r28
      ae:	cd b7       	in	r28, 0x3d	; 61
      b0:	de b7       	in	r29, 0x3e	; 62
	GPIO_writePin(BUZZER_PORT_ID, BUZZER_PIN_ID, LOGIC_HIGH);
      b2:	81 e0       	ldi	r24, 0x01	; 1
      b4:	61 e0       	ldi	r22, 0x01	; 1
      b6:	41 e0       	ldi	r20, 0x01	; 1
      b8:	0e 94 2a 05 	call	0xa54	; 0xa54 <GPIO_writePin>
}
      bc:	cf 91       	pop	r28
      be:	df 91       	pop	r29
      c0:	08 95       	ret

000000c2 <BUZZER_Off>:
/*
 * Description:
 * Turn off buzzer.
 */
void BUZZER_Off( void )
{
      c2:	df 93       	push	r29
      c4:	cf 93       	push	r28
      c6:	cd b7       	in	r28, 0x3d	; 61
      c8:	de b7       	in	r29, 0x3e	; 62
	GPIO_writePin(BUZZER_PORT_ID, BUZZER_PIN_ID, LOGIC_LOW);
      ca:	81 e0       	ldi	r24, 0x01	; 1
      cc:	61 e0       	ldi	r22, 0x01	; 1
      ce:	40 e0       	ldi	r20, 0x00	; 0
      d0:	0e 94 2a 05 	call	0xa54	; 0xa54 <GPIO_writePin>
}
      d4:	cf 91       	pop	r28
      d6:	df 91       	pop	r29
      d8:	08 95       	ret

000000da <DcMotor_Init>:
 * The Function responsible for setup the direction for the two
 * motor pins through the GPIO driver.
 * Stop at the DC-Motor at the beginning through the GPIO driver.
 */
void DcMotor_Init(void)
{
      da:	df 93       	push	r29
      dc:	cf 93       	push	r28
      de:	cd b7       	in	r28, 0x3d	; 61
      e0:	de b7       	in	r29, 0x3e	; 62
	/* Setup motor control pins as output */
	GPIO_setupPinDirection(DCMOTOR_M1_PORT_ID, DCMOTOR_M1_PIN1_ID, PIN_OUTPUT);
      e2:	81 e0       	ldi	r24, 0x01	; 1
      e4:	62 e0       	ldi	r22, 0x02	; 2
      e6:	41 e0       	ldi	r20, 0x01	; 1
      e8:	0e 94 3f 04 	call	0x87e	; 0x87e <GPIO_setupPinDirection>
	GPIO_setupPinDirection(DCMOTOR_M1_PORT_ID, DCMOTOR_M1_PIN2_ID, PIN_OUTPUT);
      ec:	81 e0       	ldi	r24, 0x01	; 1
      ee:	63 e0       	ldi	r22, 0x03	; 3
      f0:	41 e0       	ldi	r20, 0x01	; 1
      f2:	0e 94 3f 04 	call	0x87e	; 0x87e <GPIO_setupPinDirection>
	/* Initially stop motor */
	GPIO_writePin(DCMOTOR_M1_PORT_ID, DCMOTOR_M1_PIN1_ID, LOGIC_LOW);
      f6:	81 e0       	ldi	r24, 0x01	; 1
      f8:	62 e0       	ldi	r22, 0x02	; 2
      fa:	40 e0       	ldi	r20, 0x00	; 0
      fc:	0e 94 2a 05 	call	0xa54	; 0xa54 <GPIO_writePin>
	GPIO_writePin(DCMOTOR_M1_PORT_ID, DCMOTOR_M1_PIN2_ID, LOGIC_LOW);
     100:	81 e0       	ldi	r24, 0x01	; 1
     102:	63 e0       	ldi	r22, 0x03	; 3
     104:	40 e0       	ldi	r20, 0x00	; 0
     106:	0e 94 2a 05 	call	0xa54	; 0xa54 <GPIO_writePin>
}
     10a:	cf 91       	pop	r28
     10c:	df 91       	pop	r29
     10e:	08 95       	ret

00000110 <DcMotor_Rotate>:
/*
 * The function responsible for rotate the DC Motor CW/ or A-CW or
 * stop the motor based on the state input state value.
 */
void DcMotor_Rotate(DcMotor_State state)
{
     110:	df 93       	push	r29
     112:	cf 93       	push	r28
     114:	00 d0       	rcall	.+0      	; 0x116 <DcMotor_Rotate+0x6>
     116:	0f 92       	push	r0
     118:	cd b7       	in	r28, 0x3d	; 61
     11a:	de b7       	in	r29, 0x3e	; 62
     11c:	89 83       	std	Y+1, r24	; 0x01
	switch(state)
     11e:	89 81       	ldd	r24, Y+1	; 0x01
     120:	28 2f       	mov	r18, r24
     122:	30 e0       	ldi	r19, 0x00	; 0
     124:	3b 83       	std	Y+3, r19	; 0x03
     126:	2a 83       	std	Y+2, r18	; 0x02
     128:	8a 81       	ldd	r24, Y+2	; 0x02
     12a:	9b 81       	ldd	r25, Y+3	; 0x03
     12c:	81 30       	cpi	r24, 0x01	; 1
     12e:	91 05       	cpc	r25, r1
     130:	a1 f0       	breq	.+40     	; 0x15a <DcMotor_Rotate+0x4a>
     132:	2a 81       	ldd	r18, Y+2	; 0x02
     134:	3b 81       	ldd	r19, Y+3	; 0x03
     136:	22 30       	cpi	r18, 0x02	; 2
     138:	31 05       	cpc	r19, r1
     13a:	d1 f0       	breq	.+52     	; 0x170 <DcMotor_Rotate+0x60>
     13c:	8a 81       	ldd	r24, Y+2	; 0x02
     13e:	9b 81       	ldd	r25, Y+3	; 0x03
     140:	00 97       	sbiw	r24, 0x00	; 0
     142:	01 f5       	brne	.+64     	; 0x184 <DcMotor_Rotate+0x74>
	{
	case CW:
		GPIO_writePin(DCMOTOR_M1_PORT_ID, DCMOTOR_M1_PIN1_ID, LOGIC_LOW);
     144:	81 e0       	ldi	r24, 0x01	; 1
     146:	62 e0       	ldi	r22, 0x02	; 2
     148:	40 e0       	ldi	r20, 0x00	; 0
     14a:	0e 94 2a 05 	call	0xa54	; 0xa54 <GPIO_writePin>
		GPIO_writePin(DCMOTOR_M1_PORT_ID, DCMOTOR_M1_PIN2_ID, LOGIC_HIGH);
     14e:	81 e0       	ldi	r24, 0x01	; 1
     150:	63 e0       	ldi	r22, 0x03	; 3
     152:	41 e0       	ldi	r20, 0x01	; 1
     154:	0e 94 2a 05 	call	0xa54	; 0xa54 <GPIO_writePin>
     158:	15 c0       	rjmp	.+42     	; 0x184 <DcMotor_Rotate+0x74>
		break;
	case A_CW:
		GPIO_writePin(DCMOTOR_M1_PORT_ID, DCMOTOR_M1_PIN1_ID, LOGIC_HIGH);
     15a:	81 e0       	ldi	r24, 0x01	; 1
     15c:	62 e0       	ldi	r22, 0x02	; 2
     15e:	41 e0       	ldi	r20, 0x01	; 1
     160:	0e 94 2a 05 	call	0xa54	; 0xa54 <GPIO_writePin>
		GPIO_writePin(DCMOTOR_M1_PORT_ID, DCMOTOR_M1_PIN2_ID, LOGIC_LOW);
     164:	81 e0       	ldi	r24, 0x01	; 1
     166:	63 e0       	ldi	r22, 0x03	; 3
     168:	40 e0       	ldi	r20, 0x00	; 0
     16a:	0e 94 2a 05 	call	0xa54	; 0xa54 <GPIO_writePin>
     16e:	0a c0       	rjmp	.+20     	; 0x184 <DcMotor_Rotate+0x74>
		break;
	case STOP:
		GPIO_writePin(DCMOTOR_M1_PORT_ID, DCMOTOR_M1_PIN1_ID, LOGIC_LOW);
     170:	81 e0       	ldi	r24, 0x01	; 1
     172:	62 e0       	ldi	r22, 0x02	; 2
     174:	40 e0       	ldi	r20, 0x00	; 0
     176:	0e 94 2a 05 	call	0xa54	; 0xa54 <GPIO_writePin>
		GPIO_writePin(DCMOTOR_M1_PORT_ID, DCMOTOR_M1_PIN2_ID, LOGIC_LOW);
     17a:	81 e0       	ldi	r24, 0x01	; 1
     17c:	63 e0       	ldi	r22, 0x03	; 3
     17e:	40 e0       	ldi	r20, 0x00	; 0
     180:	0e 94 2a 05 	call	0xa54	; 0xa54 <GPIO_writePin>
		break;
	}
}
     184:	0f 90       	pop	r0
     186:	0f 90       	pop	r0
     188:	0f 90       	pop	r0
     18a:	cf 91       	pop	r28
     18c:	df 91       	pop	r29
     18e:	08 95       	ret

00000190 <timer1Tick>:
 * Description:
 * This function used as callback function for timer1 to help making the delay.
 * This function will be called each when the Compare or overflow interrupt of TIMER1 occurs.
 */
static void timer1Tick( void )
{
     190:	df 93       	push	r29
     192:	cf 93       	push	r28
     194:	cd b7       	in	r28, 0x3d	; 61
     196:	de b7       	in	r29, 0x3e	; 62
	g_timer1Tick++;
     198:	80 91 72 00 	lds	r24, 0x0072
     19c:	90 91 73 00 	lds	r25, 0x0073
     1a0:	a0 91 74 00 	lds	r26, 0x0074
     1a4:	b0 91 75 00 	lds	r27, 0x0075
     1a8:	01 96       	adiw	r24, 0x01	; 1
     1aa:	a1 1d       	adc	r26, r1
     1ac:	b1 1d       	adc	r27, r1
     1ae:	80 93 72 00 	sts	0x0072, r24
     1b2:	90 93 73 00 	sts	0x0073, r25
     1b6:	a0 93 74 00 	sts	0x0074, r26
     1ba:	b0 93 75 00 	sts	0x0075, r27
}
     1be:	cf 91       	pop	r28
     1c0:	df 91       	pop	r29
     1c2:	08 95       	ret

000001c4 <delay_ms>:
 * Description:
 * Make busy waiting delay by n ms.
 * This function uses Timer 1 in compare match mode.
 */
void delay_ms( uint32 n )
{
     1c4:	df 93       	push	r29
     1c6:	cf 93       	push	r28
     1c8:	cd b7       	in	r28, 0x3d	; 61
     1ca:	de b7       	in	r29, 0x3e	; 62
     1cc:	60 97       	sbiw	r28, 0x10	; 16
     1ce:	0f b6       	in	r0, 0x3f	; 63
     1d0:	f8 94       	cli
     1d2:	de bf       	out	0x3e, r29	; 62
     1d4:	0f be       	out	0x3f, r0	; 63
     1d6:	cd bf       	out	0x3d, r28	; 61
     1d8:	68 87       	std	Y+8, r22	; 0x08
     1da:	79 87       	std	Y+9, r23	; 0x09
     1dc:	8a 87       	std	Y+10, r24	; 0x0a
     1de:	9b 87       	std	Y+11, r25	; 0x0b
	g_timer1Tick = 0;
     1e0:	10 92 72 00 	sts	0x0072, r1
     1e4:	10 92 73 00 	sts	0x0073, r1
     1e8:	10 92 74 00 	sts	0x0074, r1
     1ec:	10 92 75 00 	sts	0x0075, r1
	 * Configuration structure for timer.
	 * timer id, required mode of operation, initial value to be loaded before timer start,
	 * compare value that is used only in compare mode and prescaler value.
	 */
	/* T_TIMER1 = 1us, to get 1ms, Put compare value = 1000 to get 1ms. */
	TIMER_ConfigType config = {TIMER1_ID, COMPARE_MODE, 0, 1000, F_CPU_8};
     1f0:	ce 01       	movw	r24, r28
     1f2:	01 96       	adiw	r24, 0x01	; 1
     1f4:	9d 87       	std	Y+13, r25	; 0x0d
     1f6:	8c 87       	std	Y+12, r24	; 0x0c
     1f8:	e0 e6       	ldi	r30, 0x60	; 96
     1fa:	f0 e0       	ldi	r31, 0x00	; 0
     1fc:	ff 87       	std	Y+15, r31	; 0x0f
     1fe:	ee 87       	std	Y+14, r30	; 0x0e
     200:	f7 e0       	ldi	r31, 0x07	; 7
     202:	f8 8b       	std	Y+16, r31	; 0x10
     204:	ee 85       	ldd	r30, Y+14	; 0x0e
     206:	ff 85       	ldd	r31, Y+15	; 0x0f
     208:	00 80       	ld	r0, Z
     20a:	8e 85       	ldd	r24, Y+14	; 0x0e
     20c:	9f 85       	ldd	r25, Y+15	; 0x0f
     20e:	01 96       	adiw	r24, 0x01	; 1
     210:	9f 87       	std	Y+15, r25	; 0x0f
     212:	8e 87       	std	Y+14, r24	; 0x0e
     214:	ec 85       	ldd	r30, Y+12	; 0x0c
     216:	fd 85       	ldd	r31, Y+13	; 0x0d
     218:	00 82       	st	Z, r0
     21a:	8c 85       	ldd	r24, Y+12	; 0x0c
     21c:	9d 85       	ldd	r25, Y+13	; 0x0d
     21e:	01 96       	adiw	r24, 0x01	; 1
     220:	9d 87       	std	Y+13, r25	; 0x0d
     222:	8c 87       	std	Y+12, r24	; 0x0c
     224:	98 89       	ldd	r25, Y+16	; 0x10
     226:	91 50       	subi	r25, 0x01	; 1
     228:	98 8b       	std	Y+16, r25	; 0x10
     22a:	e8 89       	ldd	r30, Y+16	; 0x10
     22c:	ee 23       	and	r30, r30
     22e:	51 f7       	brne	.-44     	; 0x204 <delay_ms+0x40>
	TIMER_Init(&config);
     230:	ce 01       	movw	r24, r28
     232:	01 96       	adiw	r24, 0x01	; 1
     234:	0e 94 7d 07 	call	0xefa	; 0xefa <TIMER_Init>
	TIMER_setCallBack(timer1Tick, TIMER1_ID);
     238:	88 ec       	ldi	r24, 0xC8	; 200
     23a:	90 e0       	ldi	r25, 0x00	; 0
     23c:	61 e0       	ldi	r22, 0x01	; 1
     23e:	0e 94 7f 08 	call	0x10fe	; 0x10fe <TIMER_setCallBack>
	/* Busy wait for n ms. */
	while( g_timer1Tick< n );
     242:	20 91 72 00 	lds	r18, 0x0072
     246:	30 91 73 00 	lds	r19, 0x0073
     24a:	40 91 74 00 	lds	r20, 0x0074
     24e:	50 91 75 00 	lds	r21, 0x0075
     252:	88 85       	ldd	r24, Y+8	; 0x08
     254:	99 85       	ldd	r25, Y+9	; 0x09
     256:	aa 85       	ldd	r26, Y+10	; 0x0a
     258:	bb 85       	ldd	r27, Y+11	; 0x0b
     25a:	28 17       	cp	r18, r24
     25c:	39 07       	cpc	r19, r25
     25e:	4a 07       	cpc	r20, r26
     260:	5b 07       	cpc	r21, r27
     262:	78 f3       	brcs	.-34     	; 0x242 <delay_ms+0x7e>
	TIMER_Deinit(TIMER1_ID);
     264:	81 e0       	ldi	r24, 0x01	; 1
     266:	0e 94 b8 08 	call	0x1170	; 0x1170 <TIMER_Deinit>
}
     26a:	60 96       	adiw	r28, 0x10	; 16
     26c:	0f b6       	in	r0, 0x3f	; 63
     26e:	f8 94       	cli
     270:	de bf       	out	0x3e, r29	; 62
     272:	0f be       	out	0x3f, r0	; 63
     274:	cd bf       	out	0x3d, r28	; 61
     276:	cf 91       	pop	r28
     278:	df 91       	pop	r29
     27a:	08 95       	ret

0000027c <main>:
void openDoor( void );
void closeDoor( void );
void stopDoor( void );

int main ( void )
{
     27c:	df 93       	push	r29
     27e:	cf 93       	push	r28
     280:	cd b7       	in	r28, 0x3d	; 61
     282:	de b7       	in	r29, 0x3e	; 62
     284:	2b 97       	sbiw	r28, 0x0b	; 11
     286:	0f b6       	in	r0, 0x3f	; 63
     288:	f8 94       	cli
     28a:	de bf       	out	0x3e, r29	; 62
     28c:	0f be       	out	0x3f, r0	; 63
     28e:	cd bf       	out	0x3d, r28	; 61
	SREG |= (1<<7);
     290:	af e5       	ldi	r26, 0x5F	; 95
     292:	b0 e0       	ldi	r27, 0x00	; 0
     294:	ef e5       	ldi	r30, 0x5F	; 95
     296:	f0 e0       	ldi	r31, 0x00	; 0
     298:	80 81       	ld	r24, Z
     29a:	80 68       	ori	r24, 0x80	; 128
     29c:	8c 93       	st	X, r24
	/* Delay to let UART in the other MCU to be initialized */
	EEPROM_init();
     29e:	0e 94 67 03 	call	0x6ce	; 0x6ce <EEPROM_init>
	delay_ms(1);
     2a2:	61 e0       	ldi	r22, 0x01	; 1
     2a4:	70 e0       	ldi	r23, 0x00	; 0
     2a6:	80 e0       	ldi	r24, 0x00	; 0
     2a8:	90 e0       	ldi	r25, 0x00	; 0
     2aa:	0e 94 e2 00 	call	0x1c4	; 0x1c4 <delay_ms>
	UART_ConfigType config = {9600,BITS_8,NO_PARITY,ONE_STOP_BIT};
     2ae:	ce 01       	movw	r24, r28
     2b0:	02 96       	adiw	r24, 0x02	; 2
     2b2:	98 87       	std	Y+8, r25	; 0x08
     2b4:	8f 83       	std	Y+7, r24	; 0x07
     2b6:	e7 e6       	ldi	r30, 0x67	; 103
     2b8:	f0 e0       	ldi	r31, 0x00	; 0
     2ba:	fa 87       	std	Y+10, r31	; 0x0a
     2bc:	e9 87       	std	Y+9, r30	; 0x09
     2be:	f5 e0       	ldi	r31, 0x05	; 5
     2c0:	fb 87       	std	Y+11, r31	; 0x0b
     2c2:	e9 85       	ldd	r30, Y+9	; 0x09
     2c4:	fa 85       	ldd	r31, Y+10	; 0x0a
     2c6:	00 80       	ld	r0, Z
     2c8:	89 85       	ldd	r24, Y+9	; 0x09
     2ca:	9a 85       	ldd	r25, Y+10	; 0x0a
     2cc:	01 96       	adiw	r24, 0x01	; 1
     2ce:	9a 87       	std	Y+10, r25	; 0x0a
     2d0:	89 87       	std	Y+9, r24	; 0x09
     2d2:	ef 81       	ldd	r30, Y+7	; 0x07
     2d4:	f8 85       	ldd	r31, Y+8	; 0x08
     2d6:	00 82       	st	Z, r0
     2d8:	8f 81       	ldd	r24, Y+7	; 0x07
     2da:	98 85       	ldd	r25, Y+8	; 0x08
     2dc:	01 96       	adiw	r24, 0x01	; 1
     2de:	98 87       	std	Y+8, r25	; 0x08
     2e0:	8f 83       	std	Y+7, r24	; 0x07
     2e2:	9b 85       	ldd	r25, Y+11	; 0x0b
     2e4:	91 50       	subi	r25, 0x01	; 1
     2e6:	9b 87       	std	Y+11, r25	; 0x0b
     2e8:	eb 85       	ldd	r30, Y+11	; 0x0b
     2ea:	ee 23       	and	r30, r30
     2ec:	51 f7       	brne	.-44     	; 0x2c2 <main+0x46>
	UART_init(&config);
     2ee:	ce 01       	movw	r24, r28
     2f0:	02 96       	adiw	r24, 0x02	; 2
     2f2:	0e 94 de 0a 	call	0x15bc	; 0x15bc <UART_init>
	DcMotor_Init();
     2f6:	0e 94 6d 00 	call	0xda	; 0xda <DcMotor_Init>

	BUZZER_Init();
     2fa:	0e 94 49 00 	call	0x92	; 0x92 <BUZZER_Init>
	BUZZER_On();
     2fe:	0e 94 55 00 	call	0xaa	; 0xaa <BUZZER_On>
	delay_ms(1000);
     302:	68 ee       	ldi	r22, 0xE8	; 232
     304:	73 e0       	ldi	r23, 0x03	; 3
     306:	80 e0       	ldi	r24, 0x00	; 0
     308:	90 e0       	ldi	r25, 0x00	; 0
     30a:	0e 94 e2 00 	call	0x1c4	; 0x1c4 <delay_ms>
	BUZZER_Off();
     30e:	0e 94 61 00 	call	0xc2	; 0xc2 <BUZZER_Off>


	while(1)
	{
		UART_sendByte(CONTROL_MCU_READY);
     312:	80 e1       	ldi	r24, 0x10	; 16
     314:	0e 94 7a 0b 	call	0x16f4	; 0x16f4 <UART_sendByte>
		uint8 command = UART_recieveByte();
     318:	0e 94 91 0b 	call	0x1722	; 0x1722 <UART_recieveByte>
     31c:	89 83       	std	Y+1, r24	; 0x01
		performCommand( command );
     31e:	89 81       	ldd	r24, Y+1	; 0x01
     320:	0e 94 93 01 	call	0x326	; 0x326 <performCommand>
     324:	f6 cf       	rjmp	.-20     	; 0x312 <main+0x96>

00000326 <performCommand>:

	return 0;
}

void performCommand( uint8 command )
{
     326:	df 93       	push	r29
     328:	cf 93       	push	r28
     32a:	00 d0       	rcall	.+0      	; 0x32c <performCommand+0x6>
     32c:	0f 92       	push	r0
     32e:	cd b7       	in	r28, 0x3d	; 61
     330:	de b7       	in	r29, 0x3e	; 62
     332:	89 83       	std	Y+1, r24	; 0x01
	switch(command)
     334:	89 81       	ldd	r24, Y+1	; 0x01
     336:	28 2f       	mov	r18, r24
     338:	30 e0       	ldi	r19, 0x00	; 0
     33a:	3b 83       	std	Y+3, r19	; 0x03
     33c:	2a 83       	std	Y+2, r18	; 0x02
     33e:	8a 81       	ldd	r24, Y+2	; 0x02
     340:	9b 81       	ldd	r25, Y+3	; 0x03
     342:	84 30       	cpi	r24, 0x04	; 4
     344:	91 05       	cpc	r25, r1
     346:	99 f1       	breq	.+102    	; 0x3ae <performCommand+0x88>
     348:	2a 81       	ldd	r18, Y+2	; 0x02
     34a:	3b 81       	ldd	r19, Y+3	; 0x03
     34c:	25 30       	cpi	r18, 0x05	; 5
     34e:	31 05       	cpc	r19, r1
     350:	84 f4       	brge	.+32     	; 0x372 <performCommand+0x4c>
     352:	8a 81       	ldd	r24, Y+2	; 0x02
     354:	9b 81       	ldd	r25, Y+3	; 0x03
     356:	82 30       	cpi	r24, 0x02	; 2
     358:	91 05       	cpc	r25, r1
     35a:	19 f1       	breq	.+70     	; 0x3a2 <performCommand+0x7c>
     35c:	2a 81       	ldd	r18, Y+2	; 0x02
     35e:	3b 81       	ldd	r19, Y+3	; 0x03
     360:	23 30       	cpi	r18, 0x03	; 3
     362:	31 05       	cpc	r19, r1
     364:	0c f5       	brge	.+66     	; 0x3a8 <performCommand+0x82>
     366:	8a 81       	ldd	r24, Y+2	; 0x02
     368:	9b 81       	ldd	r25, Y+3	; 0x03
     36a:	81 30       	cpi	r24, 0x01	; 1
     36c:	91 05       	cpc	r25, r1
     36e:	b1 f0       	breq	.+44     	; 0x39c <performCommand+0x76>
     370:	2c c0       	rjmp	.+88     	; 0x3ca <performCommand+0xa4>
     372:	2a 81       	ldd	r18, Y+2	; 0x02
     374:	3b 81       	ldd	r19, Y+3	; 0x03
     376:	26 30       	cpi	r18, 0x06	; 6
     378:	31 05       	cpc	r19, r1
     37a:	f9 f0       	breq	.+62     	; 0x3ba <performCommand+0x94>
     37c:	8a 81       	ldd	r24, Y+2	; 0x02
     37e:	9b 81       	ldd	r25, Y+3	; 0x03
     380:	86 30       	cpi	r24, 0x06	; 6
     382:	91 05       	cpc	r25, r1
     384:	bc f0       	brlt	.+46     	; 0x3b4 <performCommand+0x8e>
     386:	2a 81       	ldd	r18, Y+2	; 0x02
     388:	3b 81       	ldd	r19, Y+3	; 0x03
     38a:	27 30       	cpi	r18, 0x07	; 7
     38c:	31 05       	cpc	r19, r1
     38e:	c1 f0       	breq	.+48     	; 0x3c0 <performCommand+0x9a>
     390:	8a 81       	ldd	r24, Y+2	; 0x02
     392:	9b 81       	ldd	r25, Y+3	; 0x03
     394:	88 30       	cpi	r24, 0x08	; 8
     396:	91 05       	cpc	r25, r1
     398:	b1 f0       	breq	.+44     	; 0x3c6 <performCommand+0xa0>
     39a:	17 c0       	rjmp	.+46     	; 0x3ca <performCommand+0xa4>
	{
	case CONTROL_COMPARE_TWO_PASSWORDS:
		checkNewPassword();
     39c:	0e 94 eb 01 	call	0x3d6	; 0x3d6 <checkNewPassword>
     3a0:	14 c0       	rjmp	.+40     	; 0x3ca <performCommand+0xa4>
		break;
	case CONTROL_CHECK_PASSWORD_LENGTH:
		checkPasswordLength();
     3a2:	0e 94 5b 02 	call	0x4b6	; 0x4b6 <checkPasswordLength>
     3a6:	11 c0       	rjmp	.+34     	; 0x3ca <performCommand+0xa4>
		break;
	case CONTROL_CHECK_SAVED_PASSWORD_FLAG:
		checkSavedPassword();
     3a8:	0e 94 b1 02 	call	0x562	; 0x562 <checkSavedPassword>
     3ac:	0e c0       	rjmp	.+28     	; 0x3ca <performCommand+0xa4>
		break;
	case CONTROL_ERASE_SAVED_PASSWORD:
		eraseSavedPassword();
     3ae:	0e 94 c9 02 	call	0x592	; 0x592 <eraseSavedPassword>
     3b2:	0b c0       	rjmp	.+22     	; 0x3ca <performCommand+0xa4>
		break;
	case CHECK_PASSWORD_WITH_SAVED_PASSWORD:
		checkPassword();
     3b4:	0e 94 db 02 	call	0x5b6	; 0x5b6 <checkPassword>
     3b8:	08 c0       	rjmp	.+16     	; 0x3ca <performCommand+0xa4>
		break;
	case CONTROL_MOTOR_ROTATE_CW:
		openDoor();
     3ba:	0e 94 49 03 	call	0x692	; 0x692 <openDoor>
     3be:	05 c0       	rjmp	.+10     	; 0x3ca <performCommand+0xa4>
		break;
	case CONTROL_MOTOR_STOP:
		stopDoor();
     3c0:	0e 94 5d 03 	call	0x6ba	; 0x6ba <stopDoor>
     3c4:	02 c0       	rjmp	.+4      	; 0x3ca <performCommand+0xa4>
		break;
	case CONTROL_MOTOR_ROTATE_CCW:
		closeDoor();
     3c6:	0e 94 53 03 	call	0x6a6	; 0x6a6 <closeDoor>
		break;
	default:
		break;
	}
}
     3ca:	0f 90       	pop	r0
     3cc:	0f 90       	pop	r0
     3ce:	0f 90       	pop	r0
     3d0:	cf 91       	pop	r28
     3d2:	df 91       	pop	r29
     3d4:	08 95       	ret

000003d6 <checkNewPassword>:

void checkNewPassword( void )
{
     3d6:	0f 93       	push	r16
     3d8:	1f 93       	push	r17
     3da:	df 93       	push	r29
     3dc:	cf 93       	push	r28
     3de:	cd b7       	in	r28, 0x3d	; 61
     3e0:	de b7       	in	r29, 0x3e	; 62
     3e2:	2e 97       	sbiw	r28, 0x0e	; 14
     3e4:	0f b6       	in	r0, 0x3f	; 63
     3e6:	f8 94       	cli
     3e8:	de bf       	out	0x3e, r29	; 62
     3ea:	0f be       	out	0x3f, r0	; 63
     3ec:	cd bf       	out	0x3d, r28	; 61
	uint8 password[PASSWORD_LENGTH];
	uint8 reEnteredPassword[PASSWORD_LENGTH];

	UART_sendByte(CONTROL_MCU_READY);
     3ee:	80 e1       	ldi	r24, 0x10	; 16
     3f0:	0e 94 7a 0b 	call	0x16f4	; 0x16f4 <UART_sendByte>

	/* Receiving password */
	for (uint8 i = 0; i < PASSWORD_LENGTH; i++)
     3f4:	1b 82       	std	Y+3, r1	; 0x03
     3f6:	0f c0       	rjmp	.+30     	; 0x416 <checkNewPassword+0x40>
	{
		password[i] = UART_recieveByte();
     3f8:	8b 81       	ldd	r24, Y+3	; 0x03
     3fa:	08 2f       	mov	r16, r24
     3fc:	10 e0       	ldi	r17, 0x00	; 0
     3fe:	0e 94 91 0b 	call	0x1722	; 0x1722 <UART_recieveByte>
     402:	28 2f       	mov	r18, r24
     404:	ce 01       	movw	r24, r28
     406:	05 96       	adiw	r24, 0x05	; 5
     408:	fc 01       	movw	r30, r24
     40a:	e0 0f       	add	r30, r16
     40c:	f1 1f       	adc	r31, r17
     40e:	20 83       	st	Z, r18
	uint8 reEnteredPassword[PASSWORD_LENGTH];

	UART_sendByte(CONTROL_MCU_READY);

	/* Receiving password */
	for (uint8 i = 0; i < PASSWORD_LENGTH; i++)
     410:	8b 81       	ldd	r24, Y+3	; 0x03
     412:	8f 5f       	subi	r24, 0xFF	; 255
     414:	8b 83       	std	Y+3, r24	; 0x03
     416:	8b 81       	ldd	r24, Y+3	; 0x03
     418:	85 30       	cpi	r24, 0x05	; 5
     41a:	70 f3       	brcs	.-36     	; 0x3f8 <checkNewPassword+0x22>
	{
		password[i] = UART_recieveByte();
	}
	/* Receiving reentered password */
	for (uint8 i = 0; i < PASSWORD_LENGTH; i++)
     41c:	1a 82       	std	Y+2, r1	; 0x02
     41e:	0f c0       	rjmp	.+30     	; 0x43e <checkNewPassword+0x68>
	{
		reEnteredPassword[i] = UART_recieveByte();
     420:	8a 81       	ldd	r24, Y+2	; 0x02
     422:	08 2f       	mov	r16, r24
     424:	10 e0       	ldi	r17, 0x00	; 0
     426:	0e 94 91 0b 	call	0x1722	; 0x1722 <UART_recieveByte>
     42a:	28 2f       	mov	r18, r24
     42c:	ce 01       	movw	r24, r28
     42e:	0a 96       	adiw	r24, 0x0a	; 10
     430:	fc 01       	movw	r30, r24
     432:	e0 0f       	add	r30, r16
     434:	f1 1f       	adc	r31, r17
     436:	20 83       	st	Z, r18
	for (uint8 i = 0; i < PASSWORD_LENGTH; i++)
	{
		password[i] = UART_recieveByte();
	}
	/* Receiving reentered password */
	for (uint8 i = 0; i < PASSWORD_LENGTH; i++)
     438:	8a 81       	ldd	r24, Y+2	; 0x02
     43a:	8f 5f       	subi	r24, 0xFF	; 255
     43c:	8a 83       	std	Y+2, r24	; 0x02
     43e:	8a 81       	ldd	r24, Y+2	; 0x02
     440:	85 30       	cpi	r24, 0x05	; 5
     442:	70 f3       	brcs	.-36     	; 0x420 <checkNewPassword+0x4a>
	{
		reEnteredPassword[i] = UART_recieveByte();
	}

	boolean result = COMPARE_RESULT_TRUE;
     444:	81 e0       	ldi	r24, 0x01	; 1
     446:	8c 83       	std	Y+4, r24	; 0x04
	/* Comparing passwords*/
	for (uint8 i = 0; i < PASSWORD_LENGTH; i++)
     448:	19 82       	std	Y+1, r1	; 0x01
     44a:	19 c0       	rjmp	.+50     	; 0x47e <__stack+0x1f>
	{
		if(password[i] != reEnteredPassword[i])
     44c:	89 81       	ldd	r24, Y+1	; 0x01
     44e:	28 2f       	mov	r18, r24
     450:	30 e0       	ldi	r19, 0x00	; 0
     452:	ce 01       	movw	r24, r28
     454:	05 96       	adiw	r24, 0x05	; 5
     456:	fc 01       	movw	r30, r24
     458:	e2 0f       	add	r30, r18
     45a:	f3 1f       	adc	r31, r19
     45c:	40 81       	ld	r20, Z
     45e:	89 81       	ldd	r24, Y+1	; 0x01
     460:	28 2f       	mov	r18, r24
     462:	30 e0       	ldi	r19, 0x00	; 0
     464:	ce 01       	movw	r24, r28
     466:	0a 96       	adiw	r24, 0x0a	; 10
     468:	fc 01       	movw	r30, r24
     46a:	e2 0f       	add	r30, r18
     46c:	f3 1f       	adc	r31, r19
     46e:	80 81       	ld	r24, Z
     470:	48 17       	cp	r20, r24
     472:	11 f0       	breq	.+4      	; 0x478 <__stack+0x19>
		{
			result = COMPARE_RESULT_FALSE;
     474:	1c 82       	std	Y+4, r1	; 0x04
     476:	06 c0       	rjmp	.+12     	; 0x484 <__stack+0x25>
		reEnteredPassword[i] = UART_recieveByte();
	}

	boolean result = COMPARE_RESULT_TRUE;
	/* Comparing passwords*/
	for (uint8 i = 0; i < PASSWORD_LENGTH; i++)
     478:	89 81       	ldd	r24, Y+1	; 0x01
     47a:	8f 5f       	subi	r24, 0xFF	; 255
     47c:	89 83       	std	Y+1, r24	; 0x01
     47e:	89 81       	ldd	r24, Y+1	; 0x01
     480:	85 30       	cpi	r24, 0x05	; 5
     482:	20 f3       	brcs	.-56     	; 0x44c <checkNewPassword+0x76>
			result = COMPARE_RESULT_FALSE;
			break;
		}
	}
	/* If result and re-enterred passwords are identical, save password to EEPROM. */
	if(result == COMPARE_RESULT_TRUE)
     484:	8c 81       	ldd	r24, Y+4	; 0x04
     486:	81 30       	cpi	r24, 0x01	; 1
     488:	21 f4       	brne	.+8      	; 0x492 <__stack+0x33>
	{
		savePassword( password );
     48a:	ce 01       	movw	r24, r28
     48c:	05 96       	adiw	r24, 0x05	; 5
     48e:	0e 94 78 02 	call	0x4f0	; 0x4f0 <savePassword>
	}
	while(UART_recieveByte() != HMI_MCU_READY);
     492:	0e 94 91 0b 	call	0x1722	; 0x1722 <UART_recieveByte>
     496:	8f 3f       	cpi	r24, 0xFF	; 255
     498:	e1 f7       	brne	.-8      	; 0x492 <__stack+0x33>
	UART_sendByte(result);
     49a:	8c 81       	ldd	r24, Y+4	; 0x04
     49c:	0e 94 7a 0b 	call	0x16f4	; 0x16f4 <UART_sendByte>
}
     4a0:	2e 96       	adiw	r28, 0x0e	; 14
     4a2:	0f b6       	in	r0, 0x3f	; 63
     4a4:	f8 94       	cli
     4a6:	de bf       	out	0x3e, r29	; 62
     4a8:	0f be       	out	0x3f, r0	; 63
     4aa:	cd bf       	out	0x3d, r28	; 61
     4ac:	cf 91       	pop	r28
     4ae:	df 91       	pop	r29
     4b0:	1f 91       	pop	r17
     4b2:	0f 91       	pop	r16
     4b4:	08 95       	ret

000004b6 <checkPasswordLength>:

void checkPasswordLength( void )
{
     4b6:	df 93       	push	r29
     4b8:	cf 93       	push	r28
     4ba:	00 d0       	rcall	.+0      	; 0x4bc <checkPasswordLength+0x6>
     4bc:	cd b7       	in	r28, 0x3d	; 61
     4be:	de b7       	in	r29, 0x3e	; 62
	/* Get length of the entered password. */
	UART_sendByte(CONTROL_MCU_READY);
     4c0:	80 e1       	ldi	r24, 0x10	; 16
     4c2:	0e 94 7a 0b 	call	0x16f4	; 0x16f4 <UART_sendByte>
	uint8 length = UART_recieveByte();
     4c6:	0e 94 91 0b 	call	0x1722	; 0x1722 <UART_recieveByte>
     4ca:	89 83       	std	Y+1, r24	; 0x01
	/* Send the result of comparison to HMI MCU to represent an error. */
	while(UART_recieveByte() != HMI_MCU_READY);
     4cc:	0e 94 91 0b 	call	0x1722	; 0x1722 <UART_recieveByte>
     4d0:	8f 3f       	cpi	r24, 0xFF	; 255
     4d2:	e1 f7       	brne	.-8      	; 0x4cc <checkPasswordLength+0x16>
	UART_sendByte(length == PASSWORD_LENGTH);
     4d4:	1a 82       	std	Y+2, r1	; 0x02
     4d6:	89 81       	ldd	r24, Y+1	; 0x01
     4d8:	85 30       	cpi	r24, 0x05	; 5
     4da:	11 f4       	brne	.+4      	; 0x4e0 <checkPasswordLength+0x2a>
     4dc:	81 e0       	ldi	r24, 0x01	; 1
     4de:	8a 83       	std	Y+2, r24	; 0x02
     4e0:	8a 81       	ldd	r24, Y+2	; 0x02
     4e2:	0e 94 7a 0b 	call	0x16f4	; 0x16f4 <UART_sendByte>
}
     4e6:	0f 90       	pop	r0
     4e8:	0f 90       	pop	r0
     4ea:	cf 91       	pop	r28
     4ec:	df 91       	pop	r29
     4ee:	08 95       	ret

000004f0 <savePassword>:

void savePassword( uint8* const password )
{
     4f0:	df 93       	push	r29
     4f2:	cf 93       	push	r28
     4f4:	00 d0       	rcall	.+0      	; 0x4f6 <savePassword+0x6>
     4f6:	0f 92       	push	r0
     4f8:	cd b7       	in	r28, 0x3d	; 61
     4fa:	de b7       	in	r29, 0x3e	; 62
     4fc:	9b 83       	std	Y+3, r25	; 0x03
     4fe:	8a 83       	std	Y+2, r24	; 0x02
	for(uint8 i = 0; i < PASSWORD_LENGTH; i++)
     500:	19 82       	std	Y+1, r1	; 0x01
     502:	1b c0       	rjmp	.+54     	; 0x53a <savePassword+0x4a>
	{
		EEPROM_writeByte(PASSWORD_START_ADDRESS + i, password[i]);
     504:	89 81       	ldd	r24, Y+1	; 0x01
     506:	88 2f       	mov	r24, r24
     508:	90 e0       	ldi	r25, 0x00	; 0
     50a:	01 96       	adiw	r24, 0x01	; 1
     50c:	ac 01       	movw	r20, r24
     50e:	89 81       	ldd	r24, Y+1	; 0x01
     510:	28 2f       	mov	r18, r24
     512:	30 e0       	ldi	r19, 0x00	; 0
     514:	8a 81       	ldd	r24, Y+2	; 0x02
     516:	9b 81       	ldd	r25, Y+3	; 0x03
     518:	fc 01       	movw	r30, r24
     51a:	e2 0f       	add	r30, r18
     51c:	f3 1f       	adc	r31, r19
     51e:	20 81       	ld	r18, Z
     520:	ca 01       	movw	r24, r20
     522:	62 2f       	mov	r22, r18
     524:	0e 94 9e 03 	call	0x73c	; 0x73c <EEPROM_writeByte>
		delay_ms(10);
     528:	6a e0       	ldi	r22, 0x0A	; 10
     52a:	70 e0       	ldi	r23, 0x00	; 0
     52c:	80 e0       	ldi	r24, 0x00	; 0
     52e:	90 e0       	ldi	r25, 0x00	; 0
     530:	0e 94 e2 00 	call	0x1c4	; 0x1c4 <delay_ms>
	UART_sendByte(length == PASSWORD_LENGTH);
}

void savePassword( uint8* const password )
{
	for(uint8 i = 0; i < PASSWORD_LENGTH; i++)
     534:	89 81       	ldd	r24, Y+1	; 0x01
     536:	8f 5f       	subi	r24, 0xFF	; 255
     538:	89 83       	std	Y+1, r24	; 0x01
     53a:	89 81       	ldd	r24, Y+1	; 0x01
     53c:	85 30       	cpi	r24, 0x05	; 5
     53e:	10 f3       	brcs	.-60     	; 0x504 <savePassword+0x14>
	{
		EEPROM_writeByte(PASSWORD_START_ADDRESS + i, password[i]);
		delay_ms(10);
	}
	EEPROM_writeByte(SAVED_PASSWORD_FLAG_ADDRESS, LOGIC_HIGH);
     540:	80 e0       	ldi	r24, 0x00	; 0
     542:	90 e0       	ldi	r25, 0x00	; 0
     544:	61 e0       	ldi	r22, 0x01	; 1
     546:	0e 94 9e 03 	call	0x73c	; 0x73c <EEPROM_writeByte>
	delay_ms(10);
     54a:	6a e0       	ldi	r22, 0x0A	; 10
     54c:	70 e0       	ldi	r23, 0x00	; 0
     54e:	80 e0       	ldi	r24, 0x00	; 0
     550:	90 e0       	ldi	r25, 0x00	; 0
     552:	0e 94 e2 00 	call	0x1c4	; 0x1c4 <delay_ms>
}
     556:	0f 90       	pop	r0
     558:	0f 90       	pop	r0
     55a:	0f 90       	pop	r0
     55c:	cf 91       	pop	r28
     55e:	df 91       	pop	r29
     560:	08 95       	ret

00000562 <checkSavedPassword>:

void checkSavedPassword( void )
{
     562:	df 93       	push	r29
     564:	cf 93       	push	r28
     566:	0f 92       	push	r0
     568:	cd b7       	in	r28, 0x3d	; 61
     56a:	de b7       	in	r29, 0x3e	; 62
	uint8 flag;
	EEPROM_readByte(SAVED_PASSWORD_FLAG_ADDRESS, &flag);
     56c:	80 e0       	ldi	r24, 0x00	; 0
     56e:	90 e0       	ldi	r25, 0x00	; 0
     570:	9e 01       	movw	r18, r28
     572:	2f 5f       	subi	r18, 0xFF	; 255
     574:	3f 4f       	sbci	r19, 0xFF	; 255
     576:	b9 01       	movw	r22, r18
     578:	0e 94 df 03 	call	0x7be	; 0x7be <EEPROM_readByte>
	while(UART_recieveByte() != HMI_MCU_READY);
     57c:	0e 94 91 0b 	call	0x1722	; 0x1722 <UART_recieveByte>
     580:	8f 3f       	cpi	r24, 0xFF	; 255
     582:	e1 f7       	brne	.-8      	; 0x57c <checkSavedPassword+0x1a>
	UART_sendByte(flag);
     584:	89 81       	ldd	r24, Y+1	; 0x01
     586:	0e 94 7a 0b 	call	0x16f4	; 0x16f4 <UART_sendByte>
}
     58a:	0f 90       	pop	r0
     58c:	cf 91       	pop	r28
     58e:	df 91       	pop	r29
     590:	08 95       	ret

00000592 <eraseSavedPassword>:

void eraseSavedPassword( void )
{
     592:	df 93       	push	r29
     594:	cf 93       	push	r28
     596:	cd b7       	in	r28, 0x3d	; 61
     598:	de b7       	in	r29, 0x3e	; 62
	EEPROM_writeByte(SAVED_PASSWORD_FLAG_ADDRESS, LOGIC_LOW);
     59a:	80 e0       	ldi	r24, 0x00	; 0
     59c:	90 e0       	ldi	r25, 0x00	; 0
     59e:	60 e0       	ldi	r22, 0x00	; 0
     5a0:	0e 94 9e 03 	call	0x73c	; 0x73c <EEPROM_writeByte>
	delay_ms(10);
     5a4:	6a e0       	ldi	r22, 0x0A	; 10
     5a6:	70 e0       	ldi	r23, 0x00	; 0
     5a8:	80 e0       	ldi	r24, 0x00	; 0
     5aa:	90 e0       	ldi	r25, 0x00	; 0
     5ac:	0e 94 e2 00 	call	0x1c4	; 0x1c4 <delay_ms>
}
     5b0:	cf 91       	pop	r28
     5b2:	df 91       	pop	r29
     5b4:	08 95       	ret

000005b6 <checkPassword>:

void checkPassword( void )
{
     5b6:	0f 93       	push	r16
     5b8:	1f 93       	push	r17
     5ba:	df 93       	push	r29
     5bc:	cf 93       	push	r28
     5be:	cd b7       	in	r28, 0x3d	; 61
     5c0:	de b7       	in	r29, 0x3e	; 62
     5c2:	2e 97       	sbiw	r28, 0x0e	; 14
     5c4:	0f b6       	in	r0, 0x3f	; 63
     5c6:	f8 94       	cli
     5c8:	de bf       	out	0x3e, r29	; 62
     5ca:	0f be       	out	0x3f, r0	; 63
     5cc:	cd bf       	out	0x3d, r28	; 61
	uint8 savedPassword[PASSWORD_LENGTH];
	uint8 enteredPassword[PASSWORD_LENGTH];
	UART_sendByte(CONTROL_MCU_READY);
     5ce:	80 e1       	ldi	r24, 0x10	; 16
     5d0:	0e 94 7a 0b 	call	0x16f4	; 0x16f4 <UART_sendByte>
	/* Receiving password */
	for (uint8 i = 0; i < PASSWORD_LENGTH; i++)
     5d4:	1b 82       	std	Y+3, r1	; 0x03
     5d6:	0f c0       	rjmp	.+30     	; 0x5f6 <checkPassword+0x40>
	{
		enteredPassword[i] = UART_recieveByte();
     5d8:	8b 81       	ldd	r24, Y+3	; 0x03
     5da:	08 2f       	mov	r16, r24
     5dc:	10 e0       	ldi	r17, 0x00	; 0
     5de:	0e 94 91 0b 	call	0x1722	; 0x1722 <UART_recieveByte>
     5e2:	28 2f       	mov	r18, r24
     5e4:	ce 01       	movw	r24, r28
     5e6:	0a 96       	adiw	r24, 0x0a	; 10
     5e8:	fc 01       	movw	r30, r24
     5ea:	e0 0f       	add	r30, r16
     5ec:	f1 1f       	adc	r31, r17
     5ee:	20 83       	st	Z, r18
{
	uint8 savedPassword[PASSWORD_LENGTH];
	uint8 enteredPassword[PASSWORD_LENGTH];
	UART_sendByte(CONTROL_MCU_READY);
	/* Receiving password */
	for (uint8 i = 0; i < PASSWORD_LENGTH; i++)
     5f0:	8b 81       	ldd	r24, Y+3	; 0x03
     5f2:	8f 5f       	subi	r24, 0xFF	; 255
     5f4:	8b 83       	std	Y+3, r24	; 0x03
     5f6:	8b 81       	ldd	r24, Y+3	; 0x03
     5f8:	85 30       	cpi	r24, 0x05	; 5
     5fa:	70 f3       	brcs	.-36     	; 0x5d8 <checkPassword+0x22>
	{
		enteredPassword[i] = UART_recieveByte();
	}
	/* Getting saved password from EEPROM */
	for (uint8 i = 0; i < PASSWORD_LENGTH; i++)
     5fc:	1a 82       	std	Y+2, r1	; 0x02
     5fe:	14 c0       	rjmp	.+40     	; 0x628 <checkPassword+0x72>
	{
		EEPROM_readByte(PASSWORD_START_ADDRESS + i, savedPassword + i);
     600:	8a 81       	ldd	r24, Y+2	; 0x02
     602:	88 2f       	mov	r24, r24
     604:	90 e0       	ldi	r25, 0x00	; 0
     606:	01 96       	adiw	r24, 0x01	; 1
     608:	ac 01       	movw	r20, r24
     60a:	8a 81       	ldd	r24, Y+2	; 0x02
     60c:	88 2f       	mov	r24, r24
     60e:	90 e0       	ldi	r25, 0x00	; 0
     610:	9e 01       	movw	r18, r28
     612:	2b 5f       	subi	r18, 0xFB	; 251
     614:	3f 4f       	sbci	r19, 0xFF	; 255
     616:	28 0f       	add	r18, r24
     618:	39 1f       	adc	r19, r25
     61a:	ca 01       	movw	r24, r20
     61c:	b9 01       	movw	r22, r18
     61e:	0e 94 df 03 	call	0x7be	; 0x7be <EEPROM_readByte>
	for (uint8 i = 0; i < PASSWORD_LENGTH; i++)
	{
		enteredPassword[i] = UART_recieveByte();
	}
	/* Getting saved password from EEPROM */
	for (uint8 i = 0; i < PASSWORD_LENGTH; i++)
     622:	8a 81       	ldd	r24, Y+2	; 0x02
     624:	8f 5f       	subi	r24, 0xFF	; 255
     626:	8a 83       	std	Y+2, r24	; 0x02
     628:	8a 81       	ldd	r24, Y+2	; 0x02
     62a:	85 30       	cpi	r24, 0x05	; 5
     62c:	48 f3       	brcs	.-46     	; 0x600 <checkPassword+0x4a>
	{
		EEPROM_readByte(PASSWORD_START_ADDRESS + i, savedPassword + i);
	}
	boolean result = COMPARE_RESULT_TRUE;
     62e:	81 e0       	ldi	r24, 0x01	; 1
     630:	8c 83       	std	Y+4, r24	; 0x04
	/* Comparing passwords*/
	for (uint8 i = 0; i < PASSWORD_LENGTH; i++)
     632:	19 82       	std	Y+1, r1	; 0x01
     634:	19 c0       	rjmp	.+50     	; 0x668 <checkPassword+0xb2>
	{
		if(enteredPassword[i] != savedPassword[i])
     636:	89 81       	ldd	r24, Y+1	; 0x01
     638:	28 2f       	mov	r18, r24
     63a:	30 e0       	ldi	r19, 0x00	; 0
     63c:	ce 01       	movw	r24, r28
     63e:	0a 96       	adiw	r24, 0x0a	; 10
     640:	fc 01       	movw	r30, r24
     642:	e2 0f       	add	r30, r18
     644:	f3 1f       	adc	r31, r19
     646:	40 81       	ld	r20, Z
     648:	89 81       	ldd	r24, Y+1	; 0x01
     64a:	28 2f       	mov	r18, r24
     64c:	30 e0       	ldi	r19, 0x00	; 0
     64e:	ce 01       	movw	r24, r28
     650:	05 96       	adiw	r24, 0x05	; 5
     652:	fc 01       	movw	r30, r24
     654:	e2 0f       	add	r30, r18
     656:	f3 1f       	adc	r31, r19
     658:	80 81       	ld	r24, Z
     65a:	48 17       	cp	r20, r24
     65c:	11 f0       	breq	.+4      	; 0x662 <checkPassword+0xac>
		{
			result = COMPARE_RESULT_FALSE;
     65e:	1c 82       	std	Y+4, r1	; 0x04
     660:	06 c0       	rjmp	.+12     	; 0x66e <checkPassword+0xb8>
	{
		EEPROM_readByte(PASSWORD_START_ADDRESS + i, savedPassword + i);
	}
	boolean result = COMPARE_RESULT_TRUE;
	/* Comparing passwords*/
	for (uint8 i = 0; i < PASSWORD_LENGTH; i++)
     662:	89 81       	ldd	r24, Y+1	; 0x01
     664:	8f 5f       	subi	r24, 0xFF	; 255
     666:	89 83       	std	Y+1, r24	; 0x01
     668:	89 81       	ldd	r24, Y+1	; 0x01
     66a:	85 30       	cpi	r24, 0x05	; 5
     66c:	20 f3       	brcs	.-56     	; 0x636 <checkPassword+0x80>
		{
			result = COMPARE_RESULT_FALSE;
			break;
		}
	}
	while(UART_recieveByte() != HMI_MCU_READY);
     66e:	0e 94 91 0b 	call	0x1722	; 0x1722 <UART_recieveByte>
     672:	8f 3f       	cpi	r24, 0xFF	; 255
     674:	e1 f7       	brne	.-8      	; 0x66e <checkPassword+0xb8>
	UART_sendByte(result);
     676:	8c 81       	ldd	r24, Y+4	; 0x04
     678:	0e 94 7a 0b 	call	0x16f4	; 0x16f4 <UART_sendByte>
}
     67c:	2e 96       	adiw	r28, 0x0e	; 14
     67e:	0f b6       	in	r0, 0x3f	; 63
     680:	f8 94       	cli
     682:	de bf       	out	0x3e, r29	; 62
     684:	0f be       	out	0x3f, r0	; 63
     686:	cd bf       	out	0x3d, r28	; 61
     688:	cf 91       	pop	r28
     68a:	df 91       	pop	r29
     68c:	1f 91       	pop	r17
     68e:	0f 91       	pop	r16
     690:	08 95       	ret

00000692 <openDoor>:

void openDoor( void )
{
     692:	df 93       	push	r29
     694:	cf 93       	push	r28
     696:	cd b7       	in	r28, 0x3d	; 61
     698:	de b7       	in	r29, 0x3e	; 62
	DcMotor_Rotate(CW);
     69a:	80 e0       	ldi	r24, 0x00	; 0
     69c:	0e 94 88 00 	call	0x110	; 0x110 <DcMotor_Rotate>
}
     6a0:	cf 91       	pop	r28
     6a2:	df 91       	pop	r29
     6a4:	08 95       	ret

000006a6 <closeDoor>:
void closeDoor( void )
{
     6a6:	df 93       	push	r29
     6a8:	cf 93       	push	r28
     6aa:	cd b7       	in	r28, 0x3d	; 61
     6ac:	de b7       	in	r29, 0x3e	; 62
	DcMotor_Rotate(A_CW);
     6ae:	81 e0       	ldi	r24, 0x01	; 1
     6b0:	0e 94 88 00 	call	0x110	; 0x110 <DcMotor_Rotate>
}
     6b4:	cf 91       	pop	r28
     6b6:	df 91       	pop	r29
     6b8:	08 95       	ret

000006ba <stopDoor>:
void stopDoor( void )
{
     6ba:	df 93       	push	r29
     6bc:	cf 93       	push	r28
     6be:	cd b7       	in	r28, 0x3d	; 61
     6c0:	de b7       	in	r29, 0x3e	; 62
	DcMotor_Rotate(STOP);
     6c2:	82 e0       	ldi	r24, 0x02	; 2
     6c4:	0e 94 88 00 	call	0x110	; 0x110 <DcMotor_Rotate>
}
     6c8:	cf 91       	pop	r28
     6ca:	df 91       	pop	r29
     6cc:	08 95       	ret

000006ce <EEPROM_init>:
#include "external_eeprom.h"
#include "twi.h"
#include "delay.h"

void EEPROM_init()
{
     6ce:	df 93       	push	r29
     6d0:	cf 93       	push	r28
     6d2:	cd b7       	in	r28, 0x3d	; 61
     6d4:	de b7       	in	r29, 0x3e	; 62
     6d6:	2a 97       	sbiw	r28, 0x0a	; 10
     6d8:	0f b6       	in	r0, 0x3f	; 63
     6da:	f8 94       	cli
     6dc:	de bf       	out	0x3e, r29	; 62
     6de:	0f be       	out	0x3f, r0	; 63
     6e0:	cd bf       	out	0x3d, r28	; 61
	TWI_ConfigType config = { 400000, 0x01 };
     6e2:	ce 01       	movw	r24, r28
     6e4:	01 96       	adiw	r24, 0x01	; 1
     6e6:	9f 83       	std	Y+7, r25	; 0x07
     6e8:	8e 83       	std	Y+6, r24	; 0x06
     6ea:	ec e6       	ldi	r30, 0x6C	; 108
     6ec:	f0 e0       	ldi	r31, 0x00	; 0
     6ee:	f9 87       	std	Y+9, r31	; 0x09
     6f0:	e8 87       	std	Y+8, r30	; 0x08
     6f2:	f5 e0       	ldi	r31, 0x05	; 5
     6f4:	fa 87       	std	Y+10, r31	; 0x0a
     6f6:	e8 85       	ldd	r30, Y+8	; 0x08
     6f8:	f9 85       	ldd	r31, Y+9	; 0x09
     6fa:	00 80       	ld	r0, Z
     6fc:	88 85       	ldd	r24, Y+8	; 0x08
     6fe:	99 85       	ldd	r25, Y+9	; 0x09
     700:	01 96       	adiw	r24, 0x01	; 1
     702:	99 87       	std	Y+9, r25	; 0x09
     704:	88 87       	std	Y+8, r24	; 0x08
     706:	ee 81       	ldd	r30, Y+6	; 0x06
     708:	ff 81       	ldd	r31, Y+7	; 0x07
     70a:	00 82       	st	Z, r0
     70c:	8e 81       	ldd	r24, Y+6	; 0x06
     70e:	9f 81       	ldd	r25, Y+7	; 0x07
     710:	01 96       	adiw	r24, 0x01	; 1
     712:	9f 83       	std	Y+7, r25	; 0x07
     714:	8e 83       	std	Y+6, r24	; 0x06
     716:	9a 85       	ldd	r25, Y+10	; 0x0a
     718:	91 50       	subi	r25, 0x01	; 1
     71a:	9a 87       	std	Y+10, r25	; 0x0a
     71c:	ea 85       	ldd	r30, Y+10	; 0x0a
     71e:	ee 23       	and	r30, r30
     720:	51 f7       	brne	.-44     	; 0x6f6 <EEPROM_init+0x28>
	TWI_init(&config);
     722:	ce 01       	movw	r24, r28
     724:	01 96       	adiw	r24, 0x01	; 1
     726:	0e 94 3e 0a 	call	0x147c	; 0x147c <TWI_init>
}
     72a:	2a 96       	adiw	r28, 0x0a	; 10
     72c:	0f b6       	in	r0, 0x3f	; 63
     72e:	f8 94       	cli
     730:	de bf       	out	0x3e, r29	; 62
     732:	0f be       	out	0x3f, r0	; 63
     734:	cd bf       	out	0x3d, r28	; 61
     736:	cf 91       	pop	r28
     738:	df 91       	pop	r29
     73a:	08 95       	ret

0000073c <EEPROM_writeByte>:

uint8 EEPROM_writeByte(uint16 u16addr, uint8 u8data)
{
     73c:	df 93       	push	r29
     73e:	cf 93       	push	r28
     740:	00 d0       	rcall	.+0      	; 0x742 <EEPROM_writeByte+0x6>
     742:	00 d0       	rcall	.+0      	; 0x744 <EEPROM_writeByte+0x8>
     744:	cd b7       	in	r28, 0x3d	; 61
     746:	de b7       	in	r29, 0x3e	; 62
     748:	9a 83       	std	Y+2, r25	; 0x02
     74a:	89 83       	std	Y+1, r24	; 0x01
     74c:	6b 83       	std	Y+3, r22	; 0x03
	/* Send the Start Bit */
    TWI_start();
     74e:	0e 94 77 0a 	call	0x14ee	; 0x14ee <TWI_start>
    if (TWI_getStatus() != TWI_START)
     752:	0e 94 cf 0a 	call	0x159e	; 0x159e <TWI_getStatus>
     756:	88 30       	cpi	r24, 0x08	; 8
     758:	11 f0       	breq	.+4      	; 0x75e <EEPROM_writeByte+0x22>
        return ERROR;
     75a:	1c 82       	std	Y+4, r1	; 0x04
     75c:	28 c0       	rjmp	.+80     	; 0x7ae <EEPROM_writeByte+0x72>
		
    /* Send the device address, we need to get A8 A9 A10 address bits from the
     * memory location address and R/W=0 (write) */
    TWI_writeByte((uint8)(0xA0 | ((u16addr & 0x0700)>>7)));
     75e:	89 81       	ldd	r24, Y+1	; 0x01
     760:	9a 81       	ldd	r25, Y+2	; 0x02
     762:	80 70       	andi	r24, 0x00	; 0
     764:	97 70       	andi	r25, 0x07	; 7
     766:	88 0f       	add	r24, r24
     768:	89 2f       	mov	r24, r25
     76a:	88 1f       	adc	r24, r24
     76c:	99 0b       	sbc	r25, r25
     76e:	91 95       	neg	r25
     770:	80 6a       	ori	r24, 0xA0	; 160
     772:	0e 94 92 0a 	call	0x1524	; 0x1524 <TWI_writeByte>
    if (TWI_getStatus() != TWI_MT_SLA_W_ACK)
     776:	0e 94 cf 0a 	call	0x159e	; 0x159e <TWI_getStatus>
     77a:	88 31       	cpi	r24, 0x18	; 24
     77c:	11 f0       	breq	.+4      	; 0x782 <EEPROM_writeByte+0x46>
        return ERROR; 
     77e:	1c 82       	std	Y+4, r1	; 0x04
     780:	16 c0       	rjmp	.+44     	; 0x7ae <EEPROM_writeByte+0x72>
		 
    /* Send the required memory location address */
    TWI_writeByte((uint8)(u16addr));
     782:	89 81       	ldd	r24, Y+1	; 0x01
     784:	0e 94 92 0a 	call	0x1524	; 0x1524 <TWI_writeByte>
    if (TWI_getStatus() != TWI_MT_DATA_ACK)
     788:	0e 94 cf 0a 	call	0x159e	; 0x159e <TWI_getStatus>
     78c:	88 32       	cpi	r24, 0x28	; 40
     78e:	11 f0       	breq	.+4      	; 0x794 <EEPROM_writeByte+0x58>
        return ERROR;
     790:	1c 82       	std	Y+4, r1	; 0x04
     792:	0d c0       	rjmp	.+26     	; 0x7ae <EEPROM_writeByte+0x72>
		
    /* write byte to eeprom */
    TWI_writeByte(u8data);
     794:	8b 81       	ldd	r24, Y+3	; 0x03
     796:	0e 94 92 0a 	call	0x1524	; 0x1524 <TWI_writeByte>
    if (TWI_getStatus() != TWI_MT_DATA_ACK)
     79a:	0e 94 cf 0a 	call	0x159e	; 0x159e <TWI_getStatus>
     79e:	88 32       	cpi	r24, 0x28	; 40
     7a0:	11 f0       	breq	.+4      	; 0x7a6 <EEPROM_writeByte+0x6a>
        return ERROR;
     7a2:	1c 82       	std	Y+4, r1	; 0x04
     7a4:	04 c0       	rjmp	.+8      	; 0x7ae <EEPROM_writeByte+0x72>

    /* Send the Stop Bit */
    TWI_stop();
     7a6:	0e 94 87 0a 	call	0x150e	; 0x150e <TWI_stop>
	
    return SUCCESS;
     7aa:	81 e0       	ldi	r24, 0x01	; 1
     7ac:	8c 83       	std	Y+4, r24	; 0x04
     7ae:	8c 81       	ldd	r24, Y+4	; 0x04
}
     7b0:	0f 90       	pop	r0
     7b2:	0f 90       	pop	r0
     7b4:	0f 90       	pop	r0
     7b6:	0f 90       	pop	r0
     7b8:	cf 91       	pop	r28
     7ba:	df 91       	pop	r29
     7bc:	08 95       	ret

000007be <EEPROM_readByte>:

uint8 EEPROM_readByte(uint16 u16addr, uint8 *u8data)
{
     7be:	df 93       	push	r29
     7c0:	cf 93       	push	r28
     7c2:	00 d0       	rcall	.+0      	; 0x7c4 <EEPROM_readByte+0x6>
     7c4:	00 d0       	rcall	.+0      	; 0x7c6 <EEPROM_readByte+0x8>
     7c6:	0f 92       	push	r0
     7c8:	cd b7       	in	r28, 0x3d	; 61
     7ca:	de b7       	in	r29, 0x3e	; 62
     7cc:	9a 83       	std	Y+2, r25	; 0x02
     7ce:	89 83       	std	Y+1, r24	; 0x01
     7d0:	7c 83       	std	Y+4, r23	; 0x04
     7d2:	6b 83       	std	Y+3, r22	; 0x03
	/* Send the Start Bit */
    TWI_start();
     7d4:	0e 94 77 0a 	call	0x14ee	; 0x14ee <TWI_start>
    if (TWI_getStatus() != TWI_START)
     7d8:	0e 94 cf 0a 	call	0x159e	; 0x159e <TWI_getStatus>
     7dc:	88 30       	cpi	r24, 0x08	; 8
     7de:	11 f0       	breq	.+4      	; 0x7e4 <EEPROM_readByte+0x26>
        return ERROR;
     7e0:	1d 82       	std	Y+5, r1	; 0x05
     7e2:	44 c0       	rjmp	.+136    	; 0x86c <EEPROM_readByte+0xae>
		
    /* Send the device address, we need to get A8 A9 A10 address bits from the
     * memory location address and R/W=0 (write) */
    TWI_writeByte((uint8)((0xA0) | ((u16addr & 0x0700)>>7)));
     7e4:	89 81       	ldd	r24, Y+1	; 0x01
     7e6:	9a 81       	ldd	r25, Y+2	; 0x02
     7e8:	80 70       	andi	r24, 0x00	; 0
     7ea:	97 70       	andi	r25, 0x07	; 7
     7ec:	88 0f       	add	r24, r24
     7ee:	89 2f       	mov	r24, r25
     7f0:	88 1f       	adc	r24, r24
     7f2:	99 0b       	sbc	r25, r25
     7f4:	91 95       	neg	r25
     7f6:	80 6a       	ori	r24, 0xA0	; 160
     7f8:	0e 94 92 0a 	call	0x1524	; 0x1524 <TWI_writeByte>
    if (TWI_getStatus() != TWI_MT_SLA_W_ACK)
     7fc:	0e 94 cf 0a 	call	0x159e	; 0x159e <TWI_getStatus>
     800:	88 31       	cpi	r24, 0x18	; 24
     802:	11 f0       	breq	.+4      	; 0x808 <EEPROM_readByte+0x4a>
        return ERROR;
     804:	1d 82       	std	Y+5, r1	; 0x05
     806:	32 c0       	rjmp	.+100    	; 0x86c <EEPROM_readByte+0xae>
		
    /* Send the required memory location address */
    TWI_writeByte((uint8)(u16addr));
     808:	89 81       	ldd	r24, Y+1	; 0x01
     80a:	0e 94 92 0a 	call	0x1524	; 0x1524 <TWI_writeByte>
    if (TWI_getStatus() != TWI_MT_DATA_ACK)
     80e:	0e 94 cf 0a 	call	0x159e	; 0x159e <TWI_getStatus>
     812:	88 32       	cpi	r24, 0x28	; 40
     814:	11 f0       	breq	.+4      	; 0x81a <EEPROM_readByte+0x5c>
        return ERROR;
     816:	1d 82       	std	Y+5, r1	; 0x05
     818:	29 c0       	rjmp	.+82     	; 0x86c <EEPROM_readByte+0xae>
		
    /* Send the Repeated Start Bit */
    TWI_start();
     81a:	0e 94 77 0a 	call	0x14ee	; 0x14ee <TWI_start>
    if (TWI_getStatus() != TWI_REP_START)
     81e:	0e 94 cf 0a 	call	0x159e	; 0x159e <TWI_getStatus>
     822:	80 31       	cpi	r24, 0x10	; 16
     824:	11 f0       	breq	.+4      	; 0x82a <EEPROM_readByte+0x6c>
        return ERROR;
     826:	1d 82       	std	Y+5, r1	; 0x05
     828:	21 c0       	rjmp	.+66     	; 0x86c <EEPROM_readByte+0xae>
		
    /* Send the device address, we need to get A8 A9 A10 address bits from the
     * memory location address and R/W=1 (Read) */
    TWI_writeByte((uint8)((0xA0) | ((u16addr & 0x0700)>>7) | 1));
     82a:	89 81       	ldd	r24, Y+1	; 0x01
     82c:	9a 81       	ldd	r25, Y+2	; 0x02
     82e:	80 70       	andi	r24, 0x00	; 0
     830:	97 70       	andi	r25, 0x07	; 7
     832:	88 0f       	add	r24, r24
     834:	89 2f       	mov	r24, r25
     836:	88 1f       	adc	r24, r24
     838:	99 0b       	sbc	r25, r25
     83a:	91 95       	neg	r25
     83c:	81 6a       	ori	r24, 0xA1	; 161
     83e:	0e 94 92 0a 	call	0x1524	; 0x1524 <TWI_writeByte>
    if (TWI_getStatus() != TWI_MT_SLA_R_ACK)
     842:	0e 94 cf 0a 	call	0x159e	; 0x159e <TWI_getStatus>
     846:	80 34       	cpi	r24, 0x40	; 64
     848:	11 f0       	breq	.+4      	; 0x84e <EEPROM_readByte+0x90>
        return ERROR;
     84a:	1d 82       	std	Y+5, r1	; 0x05
     84c:	0f c0       	rjmp	.+30     	; 0x86c <EEPROM_readByte+0xae>

    /* Read Byte from Memory without send ACK */
    *u8data = TWI_readByteWithNACK();
     84e:	0e 94 bc 0a 	call	0x1578	; 0x1578 <TWI_readByteWithNACK>
     852:	eb 81       	ldd	r30, Y+3	; 0x03
     854:	fc 81       	ldd	r31, Y+4	; 0x04
     856:	80 83       	st	Z, r24
    if (TWI_getStatus() != TWI_MR_DATA_NACK)
     858:	0e 94 cf 0a 	call	0x159e	; 0x159e <TWI_getStatus>
     85c:	88 35       	cpi	r24, 0x58	; 88
     85e:	11 f0       	breq	.+4      	; 0x864 <EEPROM_readByte+0xa6>
        return ERROR;
     860:	1d 82       	std	Y+5, r1	; 0x05
     862:	04 c0       	rjmp	.+8      	; 0x86c <EEPROM_readByte+0xae>

    /* Send the Stop Bit */
    TWI_stop();
     864:	0e 94 87 0a 	call	0x150e	; 0x150e <TWI_stop>

    return SUCCESS;
     868:	81 e0       	ldi	r24, 0x01	; 1
     86a:	8d 83       	std	Y+5, r24	; 0x05
     86c:	8d 81       	ldd	r24, Y+5	; 0x05
}
     86e:	0f 90       	pop	r0
     870:	0f 90       	pop	r0
     872:	0f 90       	pop	r0
     874:	0f 90       	pop	r0
     876:	0f 90       	pop	r0
     878:	cf 91       	pop	r28
     87a:	df 91       	pop	r29
     87c:	08 95       	ret

0000087e <GPIO_setupPinDirection>:
 * Description :
 * Setup the direction of the required pin input/output.
 * If the input port number or pin number are not correct, The function will not handle the request.
 */
void GPIO_setupPinDirection(uint8 port_num, uint8 pin_num, GPIO_PinDirectionType direction)
{
     87e:	df 93       	push	r29
     880:	cf 93       	push	r28
     882:	00 d0       	rcall	.+0      	; 0x884 <GPIO_setupPinDirection+0x6>
     884:	00 d0       	rcall	.+0      	; 0x886 <GPIO_setupPinDirection+0x8>
     886:	0f 92       	push	r0
     888:	cd b7       	in	r28, 0x3d	; 61
     88a:	de b7       	in	r29, 0x3e	; 62
     88c:	89 83       	std	Y+1, r24	; 0x01
     88e:	6a 83       	std	Y+2, r22	; 0x02
     890:	4b 83       	std	Y+3, r20	; 0x03
	/*
	 * Check if the input port number is greater than NUM_OF_PINS_PER_PORT value.
	 * Or if the input pin number is greater than NUM_OF_PINS_PER_PORT value.
	 * In this case the input is not valid port/pin number
	 */
	if((pin_num >= NUM_OF_PINS_PER_PORT) || (port_num >= NUM_OF_PORTS))
     892:	8a 81       	ldd	r24, Y+2	; 0x02
     894:	88 30       	cpi	r24, 0x08	; 8
     896:	08 f0       	brcs	.+2      	; 0x89a <GPIO_setupPinDirection+0x1c>
     898:	d5 c0       	rjmp	.+426    	; 0xa44 <GPIO_setupPinDirection+0x1c6>
     89a:	89 81       	ldd	r24, Y+1	; 0x01
     89c:	84 30       	cpi	r24, 0x04	; 4
     89e:	08 f0       	brcs	.+2      	; 0x8a2 <GPIO_setupPinDirection+0x24>
     8a0:	d1 c0       	rjmp	.+418    	; 0xa44 <GPIO_setupPinDirection+0x1c6>
		/* Do Nothing */
	}
	else
	{
		/* Setup the pin direction as required */
		switch(port_num)
     8a2:	89 81       	ldd	r24, Y+1	; 0x01
     8a4:	28 2f       	mov	r18, r24
     8a6:	30 e0       	ldi	r19, 0x00	; 0
     8a8:	3d 83       	std	Y+5, r19	; 0x05
     8aa:	2c 83       	std	Y+4, r18	; 0x04
     8ac:	8c 81       	ldd	r24, Y+4	; 0x04
     8ae:	9d 81       	ldd	r25, Y+5	; 0x05
     8b0:	81 30       	cpi	r24, 0x01	; 1
     8b2:	91 05       	cpc	r25, r1
     8b4:	09 f4       	brne	.+2      	; 0x8b8 <GPIO_setupPinDirection+0x3a>
     8b6:	43 c0       	rjmp	.+134    	; 0x93e <GPIO_setupPinDirection+0xc0>
     8b8:	2c 81       	ldd	r18, Y+4	; 0x04
     8ba:	3d 81       	ldd	r19, Y+5	; 0x05
     8bc:	22 30       	cpi	r18, 0x02	; 2
     8be:	31 05       	cpc	r19, r1
     8c0:	2c f4       	brge	.+10     	; 0x8cc <GPIO_setupPinDirection+0x4e>
     8c2:	8c 81       	ldd	r24, Y+4	; 0x04
     8c4:	9d 81       	ldd	r25, Y+5	; 0x05
     8c6:	00 97       	sbiw	r24, 0x00	; 0
     8c8:	71 f0       	breq	.+28     	; 0x8e6 <GPIO_setupPinDirection+0x68>
     8ca:	bc c0       	rjmp	.+376    	; 0xa44 <GPIO_setupPinDirection+0x1c6>
     8cc:	2c 81       	ldd	r18, Y+4	; 0x04
     8ce:	3d 81       	ldd	r19, Y+5	; 0x05
     8d0:	22 30       	cpi	r18, 0x02	; 2
     8d2:	31 05       	cpc	r19, r1
     8d4:	09 f4       	brne	.+2      	; 0x8d8 <GPIO_setupPinDirection+0x5a>
     8d6:	5f c0       	rjmp	.+190    	; 0x996 <GPIO_setupPinDirection+0x118>
     8d8:	8c 81       	ldd	r24, Y+4	; 0x04
     8da:	9d 81       	ldd	r25, Y+5	; 0x05
     8dc:	83 30       	cpi	r24, 0x03	; 3
     8de:	91 05       	cpc	r25, r1
     8e0:	09 f4       	brne	.+2      	; 0x8e4 <GPIO_setupPinDirection+0x66>
     8e2:	85 c0       	rjmp	.+266    	; 0x9ee <GPIO_setupPinDirection+0x170>
     8e4:	af c0       	rjmp	.+350    	; 0xa44 <GPIO_setupPinDirection+0x1c6>
		{
		case PORTA_ID:
			if(direction == PIN_OUTPUT)
     8e6:	8b 81       	ldd	r24, Y+3	; 0x03
     8e8:	81 30       	cpi	r24, 0x01	; 1
     8ea:	a1 f4       	brne	.+40     	; 0x914 <GPIO_setupPinDirection+0x96>
			{
				SET_BIT(DDRA,pin_num);
     8ec:	aa e3       	ldi	r26, 0x3A	; 58
     8ee:	b0 e0       	ldi	r27, 0x00	; 0
     8f0:	ea e3       	ldi	r30, 0x3A	; 58
     8f2:	f0 e0       	ldi	r31, 0x00	; 0
     8f4:	80 81       	ld	r24, Z
     8f6:	48 2f       	mov	r20, r24
     8f8:	8a 81       	ldd	r24, Y+2	; 0x02
     8fa:	28 2f       	mov	r18, r24
     8fc:	30 e0       	ldi	r19, 0x00	; 0
     8fe:	81 e0       	ldi	r24, 0x01	; 1
     900:	90 e0       	ldi	r25, 0x00	; 0
     902:	02 2e       	mov	r0, r18
     904:	02 c0       	rjmp	.+4      	; 0x90a <GPIO_setupPinDirection+0x8c>
     906:	88 0f       	add	r24, r24
     908:	99 1f       	adc	r25, r25
     90a:	0a 94       	dec	r0
     90c:	e2 f7       	brpl	.-8      	; 0x906 <GPIO_setupPinDirection+0x88>
     90e:	84 2b       	or	r24, r20
     910:	8c 93       	st	X, r24
     912:	98 c0       	rjmp	.+304    	; 0xa44 <GPIO_setupPinDirection+0x1c6>
			}
			else
			{
				CLEAR_BIT(DDRA,pin_num);
     914:	aa e3       	ldi	r26, 0x3A	; 58
     916:	b0 e0       	ldi	r27, 0x00	; 0
     918:	ea e3       	ldi	r30, 0x3A	; 58
     91a:	f0 e0       	ldi	r31, 0x00	; 0
     91c:	80 81       	ld	r24, Z
     91e:	48 2f       	mov	r20, r24
     920:	8a 81       	ldd	r24, Y+2	; 0x02
     922:	28 2f       	mov	r18, r24
     924:	30 e0       	ldi	r19, 0x00	; 0
     926:	81 e0       	ldi	r24, 0x01	; 1
     928:	90 e0       	ldi	r25, 0x00	; 0
     92a:	02 2e       	mov	r0, r18
     92c:	02 c0       	rjmp	.+4      	; 0x932 <GPIO_setupPinDirection+0xb4>
     92e:	88 0f       	add	r24, r24
     930:	99 1f       	adc	r25, r25
     932:	0a 94       	dec	r0
     934:	e2 f7       	brpl	.-8      	; 0x92e <GPIO_setupPinDirection+0xb0>
     936:	80 95       	com	r24
     938:	84 23       	and	r24, r20
     93a:	8c 93       	st	X, r24
     93c:	83 c0       	rjmp	.+262    	; 0xa44 <GPIO_setupPinDirection+0x1c6>
			}
			break;
		case PORTB_ID:
			if(direction == PIN_OUTPUT)
     93e:	8b 81       	ldd	r24, Y+3	; 0x03
     940:	81 30       	cpi	r24, 0x01	; 1
     942:	a1 f4       	brne	.+40     	; 0x96c <GPIO_setupPinDirection+0xee>
			{
				SET_BIT(DDRB,pin_num);
     944:	a7 e3       	ldi	r26, 0x37	; 55
     946:	b0 e0       	ldi	r27, 0x00	; 0
     948:	e7 e3       	ldi	r30, 0x37	; 55
     94a:	f0 e0       	ldi	r31, 0x00	; 0
     94c:	80 81       	ld	r24, Z
     94e:	48 2f       	mov	r20, r24
     950:	8a 81       	ldd	r24, Y+2	; 0x02
     952:	28 2f       	mov	r18, r24
     954:	30 e0       	ldi	r19, 0x00	; 0
     956:	81 e0       	ldi	r24, 0x01	; 1
     958:	90 e0       	ldi	r25, 0x00	; 0
     95a:	02 2e       	mov	r0, r18
     95c:	02 c0       	rjmp	.+4      	; 0x962 <GPIO_setupPinDirection+0xe4>
     95e:	88 0f       	add	r24, r24
     960:	99 1f       	adc	r25, r25
     962:	0a 94       	dec	r0
     964:	e2 f7       	brpl	.-8      	; 0x95e <GPIO_setupPinDirection+0xe0>
     966:	84 2b       	or	r24, r20
     968:	8c 93       	st	X, r24
     96a:	6c c0       	rjmp	.+216    	; 0xa44 <GPIO_setupPinDirection+0x1c6>
			}
			else
			{
				CLEAR_BIT(DDRB,pin_num);
     96c:	a7 e3       	ldi	r26, 0x37	; 55
     96e:	b0 e0       	ldi	r27, 0x00	; 0
     970:	e7 e3       	ldi	r30, 0x37	; 55
     972:	f0 e0       	ldi	r31, 0x00	; 0
     974:	80 81       	ld	r24, Z
     976:	48 2f       	mov	r20, r24
     978:	8a 81       	ldd	r24, Y+2	; 0x02
     97a:	28 2f       	mov	r18, r24
     97c:	30 e0       	ldi	r19, 0x00	; 0
     97e:	81 e0       	ldi	r24, 0x01	; 1
     980:	90 e0       	ldi	r25, 0x00	; 0
     982:	02 2e       	mov	r0, r18
     984:	02 c0       	rjmp	.+4      	; 0x98a <GPIO_setupPinDirection+0x10c>
     986:	88 0f       	add	r24, r24
     988:	99 1f       	adc	r25, r25
     98a:	0a 94       	dec	r0
     98c:	e2 f7       	brpl	.-8      	; 0x986 <GPIO_setupPinDirection+0x108>
     98e:	80 95       	com	r24
     990:	84 23       	and	r24, r20
     992:	8c 93       	st	X, r24
     994:	57 c0       	rjmp	.+174    	; 0xa44 <GPIO_setupPinDirection+0x1c6>
			}
			break;
		case PORTC_ID:
			if(direction == PIN_OUTPUT)
     996:	8b 81       	ldd	r24, Y+3	; 0x03
     998:	81 30       	cpi	r24, 0x01	; 1
     99a:	a1 f4       	brne	.+40     	; 0x9c4 <GPIO_setupPinDirection+0x146>
			{
				SET_BIT(DDRC,pin_num);
     99c:	a4 e3       	ldi	r26, 0x34	; 52
     99e:	b0 e0       	ldi	r27, 0x00	; 0
     9a0:	e4 e3       	ldi	r30, 0x34	; 52
     9a2:	f0 e0       	ldi	r31, 0x00	; 0
     9a4:	80 81       	ld	r24, Z
     9a6:	48 2f       	mov	r20, r24
     9a8:	8a 81       	ldd	r24, Y+2	; 0x02
     9aa:	28 2f       	mov	r18, r24
     9ac:	30 e0       	ldi	r19, 0x00	; 0
     9ae:	81 e0       	ldi	r24, 0x01	; 1
     9b0:	90 e0       	ldi	r25, 0x00	; 0
     9b2:	02 2e       	mov	r0, r18
     9b4:	02 c0       	rjmp	.+4      	; 0x9ba <GPIO_setupPinDirection+0x13c>
     9b6:	88 0f       	add	r24, r24
     9b8:	99 1f       	adc	r25, r25
     9ba:	0a 94       	dec	r0
     9bc:	e2 f7       	brpl	.-8      	; 0x9b6 <GPIO_setupPinDirection+0x138>
     9be:	84 2b       	or	r24, r20
     9c0:	8c 93       	st	X, r24
     9c2:	40 c0       	rjmp	.+128    	; 0xa44 <GPIO_setupPinDirection+0x1c6>
			}
			else
			{
				CLEAR_BIT(DDRC,pin_num);
     9c4:	a4 e3       	ldi	r26, 0x34	; 52
     9c6:	b0 e0       	ldi	r27, 0x00	; 0
     9c8:	e4 e3       	ldi	r30, 0x34	; 52
     9ca:	f0 e0       	ldi	r31, 0x00	; 0
     9cc:	80 81       	ld	r24, Z
     9ce:	48 2f       	mov	r20, r24
     9d0:	8a 81       	ldd	r24, Y+2	; 0x02
     9d2:	28 2f       	mov	r18, r24
     9d4:	30 e0       	ldi	r19, 0x00	; 0
     9d6:	81 e0       	ldi	r24, 0x01	; 1
     9d8:	90 e0       	ldi	r25, 0x00	; 0
     9da:	02 2e       	mov	r0, r18
     9dc:	02 c0       	rjmp	.+4      	; 0x9e2 <GPIO_setupPinDirection+0x164>
     9de:	88 0f       	add	r24, r24
     9e0:	99 1f       	adc	r25, r25
     9e2:	0a 94       	dec	r0
     9e4:	e2 f7       	brpl	.-8      	; 0x9de <GPIO_setupPinDirection+0x160>
     9e6:	80 95       	com	r24
     9e8:	84 23       	and	r24, r20
     9ea:	8c 93       	st	X, r24
     9ec:	2b c0       	rjmp	.+86     	; 0xa44 <GPIO_setupPinDirection+0x1c6>
			}
			break;
		case PORTD_ID:
			if(direction == PIN_OUTPUT)
     9ee:	8b 81       	ldd	r24, Y+3	; 0x03
     9f0:	81 30       	cpi	r24, 0x01	; 1
     9f2:	a1 f4       	brne	.+40     	; 0xa1c <GPIO_setupPinDirection+0x19e>
			{
				SET_BIT(DDRD,pin_num);
     9f4:	a1 e3       	ldi	r26, 0x31	; 49
     9f6:	b0 e0       	ldi	r27, 0x00	; 0
     9f8:	e1 e3       	ldi	r30, 0x31	; 49
     9fa:	f0 e0       	ldi	r31, 0x00	; 0
     9fc:	80 81       	ld	r24, Z
     9fe:	48 2f       	mov	r20, r24
     a00:	8a 81       	ldd	r24, Y+2	; 0x02
     a02:	28 2f       	mov	r18, r24
     a04:	30 e0       	ldi	r19, 0x00	; 0
     a06:	81 e0       	ldi	r24, 0x01	; 1
     a08:	90 e0       	ldi	r25, 0x00	; 0
     a0a:	02 2e       	mov	r0, r18
     a0c:	02 c0       	rjmp	.+4      	; 0xa12 <GPIO_setupPinDirection+0x194>
     a0e:	88 0f       	add	r24, r24
     a10:	99 1f       	adc	r25, r25
     a12:	0a 94       	dec	r0
     a14:	e2 f7       	brpl	.-8      	; 0xa0e <GPIO_setupPinDirection+0x190>
     a16:	84 2b       	or	r24, r20
     a18:	8c 93       	st	X, r24
     a1a:	14 c0       	rjmp	.+40     	; 0xa44 <GPIO_setupPinDirection+0x1c6>
			}
			else
			{
				CLEAR_BIT(DDRD,pin_num);
     a1c:	a1 e3       	ldi	r26, 0x31	; 49
     a1e:	b0 e0       	ldi	r27, 0x00	; 0
     a20:	e1 e3       	ldi	r30, 0x31	; 49
     a22:	f0 e0       	ldi	r31, 0x00	; 0
     a24:	80 81       	ld	r24, Z
     a26:	48 2f       	mov	r20, r24
     a28:	8a 81       	ldd	r24, Y+2	; 0x02
     a2a:	28 2f       	mov	r18, r24
     a2c:	30 e0       	ldi	r19, 0x00	; 0
     a2e:	81 e0       	ldi	r24, 0x01	; 1
     a30:	90 e0       	ldi	r25, 0x00	; 0
     a32:	02 2e       	mov	r0, r18
     a34:	02 c0       	rjmp	.+4      	; 0xa3a <GPIO_setupPinDirection+0x1bc>
     a36:	88 0f       	add	r24, r24
     a38:	99 1f       	adc	r25, r25
     a3a:	0a 94       	dec	r0
     a3c:	e2 f7       	brpl	.-8      	; 0xa36 <GPIO_setupPinDirection+0x1b8>
     a3e:	80 95       	com	r24
     a40:	84 23       	and	r24, r20
     a42:	8c 93       	st	X, r24
			}
			break;
		}
	}
}
     a44:	0f 90       	pop	r0
     a46:	0f 90       	pop	r0
     a48:	0f 90       	pop	r0
     a4a:	0f 90       	pop	r0
     a4c:	0f 90       	pop	r0
     a4e:	cf 91       	pop	r28
     a50:	df 91       	pop	r29
     a52:	08 95       	ret

00000a54 <GPIO_writePin>:
 * Write the value Logic High or Logic Low on the required pin.
 * If the input port number or pin number are not correct, The function will not handle the request.
 * If the pin is input, this function will enable/disable the internal pull-up resistor.
 */
void GPIO_writePin(uint8 port_num, uint8 pin_num, uint8 value)
{
     a54:	df 93       	push	r29
     a56:	cf 93       	push	r28
     a58:	00 d0       	rcall	.+0      	; 0xa5a <GPIO_writePin+0x6>
     a5a:	00 d0       	rcall	.+0      	; 0xa5c <GPIO_writePin+0x8>
     a5c:	0f 92       	push	r0
     a5e:	cd b7       	in	r28, 0x3d	; 61
     a60:	de b7       	in	r29, 0x3e	; 62
     a62:	89 83       	std	Y+1, r24	; 0x01
     a64:	6a 83       	std	Y+2, r22	; 0x02
     a66:	4b 83       	std	Y+3, r20	; 0x03
	/*
	 * Check if the input port number is greater than NUM_OF_PINS_PER_PORT value.
	 * Or if the input pin number is greater than NUM_OF_PINS_PER_PORT value.
	 * In this case the input is not valid port/pin number
	 */
	if((pin_num >= NUM_OF_PINS_PER_PORT) || (port_num >= NUM_OF_PORTS))
     a68:	8a 81       	ldd	r24, Y+2	; 0x02
     a6a:	88 30       	cpi	r24, 0x08	; 8
     a6c:	08 f0       	brcs	.+2      	; 0xa70 <GPIO_writePin+0x1c>
     a6e:	d5 c0       	rjmp	.+426    	; 0xc1a <GPIO_writePin+0x1c6>
     a70:	89 81       	ldd	r24, Y+1	; 0x01
     a72:	84 30       	cpi	r24, 0x04	; 4
     a74:	08 f0       	brcs	.+2      	; 0xa78 <GPIO_writePin+0x24>
     a76:	d1 c0       	rjmp	.+418    	; 0xc1a <GPIO_writePin+0x1c6>
		/* Do Nothing */
	}
	else
	{
		/* Write the pin value as required */
		switch(port_num)
     a78:	89 81       	ldd	r24, Y+1	; 0x01
     a7a:	28 2f       	mov	r18, r24
     a7c:	30 e0       	ldi	r19, 0x00	; 0
     a7e:	3d 83       	std	Y+5, r19	; 0x05
     a80:	2c 83       	std	Y+4, r18	; 0x04
     a82:	8c 81       	ldd	r24, Y+4	; 0x04
     a84:	9d 81       	ldd	r25, Y+5	; 0x05
     a86:	81 30       	cpi	r24, 0x01	; 1
     a88:	91 05       	cpc	r25, r1
     a8a:	09 f4       	brne	.+2      	; 0xa8e <GPIO_writePin+0x3a>
     a8c:	43 c0       	rjmp	.+134    	; 0xb14 <GPIO_writePin+0xc0>
     a8e:	2c 81       	ldd	r18, Y+4	; 0x04
     a90:	3d 81       	ldd	r19, Y+5	; 0x05
     a92:	22 30       	cpi	r18, 0x02	; 2
     a94:	31 05       	cpc	r19, r1
     a96:	2c f4       	brge	.+10     	; 0xaa2 <GPIO_writePin+0x4e>
     a98:	8c 81       	ldd	r24, Y+4	; 0x04
     a9a:	9d 81       	ldd	r25, Y+5	; 0x05
     a9c:	00 97       	sbiw	r24, 0x00	; 0
     a9e:	71 f0       	breq	.+28     	; 0xabc <GPIO_writePin+0x68>
     aa0:	bc c0       	rjmp	.+376    	; 0xc1a <GPIO_writePin+0x1c6>
     aa2:	2c 81       	ldd	r18, Y+4	; 0x04
     aa4:	3d 81       	ldd	r19, Y+5	; 0x05
     aa6:	22 30       	cpi	r18, 0x02	; 2
     aa8:	31 05       	cpc	r19, r1
     aaa:	09 f4       	brne	.+2      	; 0xaae <GPIO_writePin+0x5a>
     aac:	5f c0       	rjmp	.+190    	; 0xb6c <GPIO_writePin+0x118>
     aae:	8c 81       	ldd	r24, Y+4	; 0x04
     ab0:	9d 81       	ldd	r25, Y+5	; 0x05
     ab2:	83 30       	cpi	r24, 0x03	; 3
     ab4:	91 05       	cpc	r25, r1
     ab6:	09 f4       	brne	.+2      	; 0xaba <GPIO_writePin+0x66>
     ab8:	85 c0       	rjmp	.+266    	; 0xbc4 <GPIO_writePin+0x170>
     aba:	af c0       	rjmp	.+350    	; 0xc1a <GPIO_writePin+0x1c6>
		{
		case PORTA_ID:
			if(value == LOGIC_HIGH)
     abc:	8b 81       	ldd	r24, Y+3	; 0x03
     abe:	81 30       	cpi	r24, 0x01	; 1
     ac0:	a1 f4       	brne	.+40     	; 0xaea <GPIO_writePin+0x96>
			{
				SET_BIT(PORTA,pin_num);
     ac2:	ab e3       	ldi	r26, 0x3B	; 59
     ac4:	b0 e0       	ldi	r27, 0x00	; 0
     ac6:	eb e3       	ldi	r30, 0x3B	; 59
     ac8:	f0 e0       	ldi	r31, 0x00	; 0
     aca:	80 81       	ld	r24, Z
     acc:	48 2f       	mov	r20, r24
     ace:	8a 81       	ldd	r24, Y+2	; 0x02
     ad0:	28 2f       	mov	r18, r24
     ad2:	30 e0       	ldi	r19, 0x00	; 0
     ad4:	81 e0       	ldi	r24, 0x01	; 1
     ad6:	90 e0       	ldi	r25, 0x00	; 0
     ad8:	02 2e       	mov	r0, r18
     ada:	02 c0       	rjmp	.+4      	; 0xae0 <GPIO_writePin+0x8c>
     adc:	88 0f       	add	r24, r24
     ade:	99 1f       	adc	r25, r25
     ae0:	0a 94       	dec	r0
     ae2:	e2 f7       	brpl	.-8      	; 0xadc <GPIO_writePin+0x88>
     ae4:	84 2b       	or	r24, r20
     ae6:	8c 93       	st	X, r24
     ae8:	98 c0       	rjmp	.+304    	; 0xc1a <GPIO_writePin+0x1c6>
			}
			else
			{
				CLEAR_BIT(PORTA,pin_num);
     aea:	ab e3       	ldi	r26, 0x3B	; 59
     aec:	b0 e0       	ldi	r27, 0x00	; 0
     aee:	eb e3       	ldi	r30, 0x3B	; 59
     af0:	f0 e0       	ldi	r31, 0x00	; 0
     af2:	80 81       	ld	r24, Z
     af4:	48 2f       	mov	r20, r24
     af6:	8a 81       	ldd	r24, Y+2	; 0x02
     af8:	28 2f       	mov	r18, r24
     afa:	30 e0       	ldi	r19, 0x00	; 0
     afc:	81 e0       	ldi	r24, 0x01	; 1
     afe:	90 e0       	ldi	r25, 0x00	; 0
     b00:	02 2e       	mov	r0, r18
     b02:	02 c0       	rjmp	.+4      	; 0xb08 <GPIO_writePin+0xb4>
     b04:	88 0f       	add	r24, r24
     b06:	99 1f       	adc	r25, r25
     b08:	0a 94       	dec	r0
     b0a:	e2 f7       	brpl	.-8      	; 0xb04 <GPIO_writePin+0xb0>
     b0c:	80 95       	com	r24
     b0e:	84 23       	and	r24, r20
     b10:	8c 93       	st	X, r24
     b12:	83 c0       	rjmp	.+262    	; 0xc1a <GPIO_writePin+0x1c6>
			}
			break;
		case PORTB_ID:
			if(value == LOGIC_HIGH)
     b14:	8b 81       	ldd	r24, Y+3	; 0x03
     b16:	81 30       	cpi	r24, 0x01	; 1
     b18:	a1 f4       	brne	.+40     	; 0xb42 <GPIO_writePin+0xee>
			{
				SET_BIT(PORTB,pin_num);
     b1a:	a8 e3       	ldi	r26, 0x38	; 56
     b1c:	b0 e0       	ldi	r27, 0x00	; 0
     b1e:	e8 e3       	ldi	r30, 0x38	; 56
     b20:	f0 e0       	ldi	r31, 0x00	; 0
     b22:	80 81       	ld	r24, Z
     b24:	48 2f       	mov	r20, r24
     b26:	8a 81       	ldd	r24, Y+2	; 0x02
     b28:	28 2f       	mov	r18, r24
     b2a:	30 e0       	ldi	r19, 0x00	; 0
     b2c:	81 e0       	ldi	r24, 0x01	; 1
     b2e:	90 e0       	ldi	r25, 0x00	; 0
     b30:	02 2e       	mov	r0, r18
     b32:	02 c0       	rjmp	.+4      	; 0xb38 <GPIO_writePin+0xe4>
     b34:	88 0f       	add	r24, r24
     b36:	99 1f       	adc	r25, r25
     b38:	0a 94       	dec	r0
     b3a:	e2 f7       	brpl	.-8      	; 0xb34 <GPIO_writePin+0xe0>
     b3c:	84 2b       	or	r24, r20
     b3e:	8c 93       	st	X, r24
     b40:	6c c0       	rjmp	.+216    	; 0xc1a <GPIO_writePin+0x1c6>
			}
			else
			{
				CLEAR_BIT(PORTB,pin_num);
     b42:	a8 e3       	ldi	r26, 0x38	; 56
     b44:	b0 e0       	ldi	r27, 0x00	; 0
     b46:	e8 e3       	ldi	r30, 0x38	; 56
     b48:	f0 e0       	ldi	r31, 0x00	; 0
     b4a:	80 81       	ld	r24, Z
     b4c:	48 2f       	mov	r20, r24
     b4e:	8a 81       	ldd	r24, Y+2	; 0x02
     b50:	28 2f       	mov	r18, r24
     b52:	30 e0       	ldi	r19, 0x00	; 0
     b54:	81 e0       	ldi	r24, 0x01	; 1
     b56:	90 e0       	ldi	r25, 0x00	; 0
     b58:	02 2e       	mov	r0, r18
     b5a:	02 c0       	rjmp	.+4      	; 0xb60 <GPIO_writePin+0x10c>
     b5c:	88 0f       	add	r24, r24
     b5e:	99 1f       	adc	r25, r25
     b60:	0a 94       	dec	r0
     b62:	e2 f7       	brpl	.-8      	; 0xb5c <GPIO_writePin+0x108>
     b64:	80 95       	com	r24
     b66:	84 23       	and	r24, r20
     b68:	8c 93       	st	X, r24
     b6a:	57 c0       	rjmp	.+174    	; 0xc1a <GPIO_writePin+0x1c6>
			}
			break;
		case PORTC_ID:
			if(value == LOGIC_HIGH)
     b6c:	8b 81       	ldd	r24, Y+3	; 0x03
     b6e:	81 30       	cpi	r24, 0x01	; 1
     b70:	a1 f4       	brne	.+40     	; 0xb9a <GPIO_writePin+0x146>
			{
				SET_BIT(PORTC,pin_num);
     b72:	a5 e3       	ldi	r26, 0x35	; 53
     b74:	b0 e0       	ldi	r27, 0x00	; 0
     b76:	e5 e3       	ldi	r30, 0x35	; 53
     b78:	f0 e0       	ldi	r31, 0x00	; 0
     b7a:	80 81       	ld	r24, Z
     b7c:	48 2f       	mov	r20, r24
     b7e:	8a 81       	ldd	r24, Y+2	; 0x02
     b80:	28 2f       	mov	r18, r24
     b82:	30 e0       	ldi	r19, 0x00	; 0
     b84:	81 e0       	ldi	r24, 0x01	; 1
     b86:	90 e0       	ldi	r25, 0x00	; 0
     b88:	02 2e       	mov	r0, r18
     b8a:	02 c0       	rjmp	.+4      	; 0xb90 <GPIO_writePin+0x13c>
     b8c:	88 0f       	add	r24, r24
     b8e:	99 1f       	adc	r25, r25
     b90:	0a 94       	dec	r0
     b92:	e2 f7       	brpl	.-8      	; 0xb8c <GPIO_writePin+0x138>
     b94:	84 2b       	or	r24, r20
     b96:	8c 93       	st	X, r24
     b98:	40 c0       	rjmp	.+128    	; 0xc1a <GPIO_writePin+0x1c6>
			}
			else
			{
				CLEAR_BIT(PORTC,pin_num);
     b9a:	a5 e3       	ldi	r26, 0x35	; 53
     b9c:	b0 e0       	ldi	r27, 0x00	; 0
     b9e:	e5 e3       	ldi	r30, 0x35	; 53
     ba0:	f0 e0       	ldi	r31, 0x00	; 0
     ba2:	80 81       	ld	r24, Z
     ba4:	48 2f       	mov	r20, r24
     ba6:	8a 81       	ldd	r24, Y+2	; 0x02
     ba8:	28 2f       	mov	r18, r24
     baa:	30 e0       	ldi	r19, 0x00	; 0
     bac:	81 e0       	ldi	r24, 0x01	; 1
     bae:	90 e0       	ldi	r25, 0x00	; 0
     bb0:	02 2e       	mov	r0, r18
     bb2:	02 c0       	rjmp	.+4      	; 0xbb8 <GPIO_writePin+0x164>
     bb4:	88 0f       	add	r24, r24
     bb6:	99 1f       	adc	r25, r25
     bb8:	0a 94       	dec	r0
     bba:	e2 f7       	brpl	.-8      	; 0xbb4 <GPIO_writePin+0x160>
     bbc:	80 95       	com	r24
     bbe:	84 23       	and	r24, r20
     bc0:	8c 93       	st	X, r24
     bc2:	2b c0       	rjmp	.+86     	; 0xc1a <GPIO_writePin+0x1c6>
			}
			break;
		case PORTD_ID:
			if(value == LOGIC_HIGH)
     bc4:	8b 81       	ldd	r24, Y+3	; 0x03
     bc6:	81 30       	cpi	r24, 0x01	; 1
     bc8:	a1 f4       	brne	.+40     	; 0xbf2 <GPIO_writePin+0x19e>
			{
				SET_BIT(PORTD,pin_num);
     bca:	a2 e3       	ldi	r26, 0x32	; 50
     bcc:	b0 e0       	ldi	r27, 0x00	; 0
     bce:	e2 e3       	ldi	r30, 0x32	; 50
     bd0:	f0 e0       	ldi	r31, 0x00	; 0
     bd2:	80 81       	ld	r24, Z
     bd4:	48 2f       	mov	r20, r24
     bd6:	8a 81       	ldd	r24, Y+2	; 0x02
     bd8:	28 2f       	mov	r18, r24
     bda:	30 e0       	ldi	r19, 0x00	; 0
     bdc:	81 e0       	ldi	r24, 0x01	; 1
     bde:	90 e0       	ldi	r25, 0x00	; 0
     be0:	02 2e       	mov	r0, r18
     be2:	02 c0       	rjmp	.+4      	; 0xbe8 <GPIO_writePin+0x194>
     be4:	88 0f       	add	r24, r24
     be6:	99 1f       	adc	r25, r25
     be8:	0a 94       	dec	r0
     bea:	e2 f7       	brpl	.-8      	; 0xbe4 <GPIO_writePin+0x190>
     bec:	84 2b       	or	r24, r20
     bee:	8c 93       	st	X, r24
     bf0:	14 c0       	rjmp	.+40     	; 0xc1a <GPIO_writePin+0x1c6>
			}
			else
			{
				CLEAR_BIT(PORTD,pin_num);
     bf2:	a2 e3       	ldi	r26, 0x32	; 50
     bf4:	b0 e0       	ldi	r27, 0x00	; 0
     bf6:	e2 e3       	ldi	r30, 0x32	; 50
     bf8:	f0 e0       	ldi	r31, 0x00	; 0
     bfa:	80 81       	ld	r24, Z
     bfc:	48 2f       	mov	r20, r24
     bfe:	8a 81       	ldd	r24, Y+2	; 0x02
     c00:	28 2f       	mov	r18, r24
     c02:	30 e0       	ldi	r19, 0x00	; 0
     c04:	81 e0       	ldi	r24, 0x01	; 1
     c06:	90 e0       	ldi	r25, 0x00	; 0
     c08:	02 2e       	mov	r0, r18
     c0a:	02 c0       	rjmp	.+4      	; 0xc10 <GPIO_writePin+0x1bc>
     c0c:	88 0f       	add	r24, r24
     c0e:	99 1f       	adc	r25, r25
     c10:	0a 94       	dec	r0
     c12:	e2 f7       	brpl	.-8      	; 0xc0c <GPIO_writePin+0x1b8>
     c14:	80 95       	com	r24
     c16:	84 23       	and	r24, r20
     c18:	8c 93       	st	X, r24
			}
			break;
		}
	}
}
     c1a:	0f 90       	pop	r0
     c1c:	0f 90       	pop	r0
     c1e:	0f 90       	pop	r0
     c20:	0f 90       	pop	r0
     c22:	0f 90       	pop	r0
     c24:	cf 91       	pop	r28
     c26:	df 91       	pop	r29
     c28:	08 95       	ret

00000c2a <GPIO_readPin>:
 * Description :
 * Read and return the value for the required pin, it should be Logic High or Logic Low.
 * If the input port number or pin number are not correct, The function will return Logic Low.
 */
uint8 GPIO_readPin(uint8 port_num, uint8 pin_num)
{
     c2a:	df 93       	push	r29
     c2c:	cf 93       	push	r28
     c2e:	00 d0       	rcall	.+0      	; 0xc30 <GPIO_readPin+0x6>
     c30:	00 d0       	rcall	.+0      	; 0xc32 <GPIO_readPin+0x8>
     c32:	0f 92       	push	r0
     c34:	cd b7       	in	r28, 0x3d	; 61
     c36:	de b7       	in	r29, 0x3e	; 62
     c38:	8a 83       	std	Y+2, r24	; 0x02
     c3a:	6b 83       	std	Y+3, r22	; 0x03
	uint8 pin_value = LOGIC_LOW;
     c3c:	19 82       	std	Y+1, r1	; 0x01
	/*
	 * Check if the input port number is greater than NUM_OF_PINS_PER_PORT value.
	 * Or if the input pin number is greater than NUM_OF_PINS_PER_PORT value.
	 * In this case the input is not valid port/pin number
	 */
	if((pin_num >= NUM_OF_PINS_PER_PORT) || (port_num >= NUM_OF_PORTS))
     c3e:	8b 81       	ldd	r24, Y+3	; 0x03
     c40:	88 30       	cpi	r24, 0x08	; 8
     c42:	08 f0       	brcs	.+2      	; 0xc46 <GPIO_readPin+0x1c>
     c44:	84 c0       	rjmp	.+264    	; 0xd4e <GPIO_readPin+0x124>
     c46:	8a 81       	ldd	r24, Y+2	; 0x02
     c48:	84 30       	cpi	r24, 0x04	; 4
     c4a:	08 f0       	brcs	.+2      	; 0xc4e <GPIO_readPin+0x24>
     c4c:	80 c0       	rjmp	.+256    	; 0xd4e <GPIO_readPin+0x124>
		/* Do Nothing */
	}
	else
	{
		/* Read the pin value as required */
		switch(port_num)
     c4e:	8a 81       	ldd	r24, Y+2	; 0x02
     c50:	28 2f       	mov	r18, r24
     c52:	30 e0       	ldi	r19, 0x00	; 0
     c54:	3d 83       	std	Y+5, r19	; 0x05
     c56:	2c 83       	std	Y+4, r18	; 0x04
     c58:	4c 81       	ldd	r20, Y+4	; 0x04
     c5a:	5d 81       	ldd	r21, Y+5	; 0x05
     c5c:	41 30       	cpi	r20, 0x01	; 1
     c5e:	51 05       	cpc	r21, r1
     c60:	79 f1       	breq	.+94     	; 0xcc0 <GPIO_readPin+0x96>
     c62:	8c 81       	ldd	r24, Y+4	; 0x04
     c64:	9d 81       	ldd	r25, Y+5	; 0x05
     c66:	82 30       	cpi	r24, 0x02	; 2
     c68:	91 05       	cpc	r25, r1
     c6a:	34 f4       	brge	.+12     	; 0xc78 <GPIO_readPin+0x4e>
     c6c:	2c 81       	ldd	r18, Y+4	; 0x04
     c6e:	3d 81       	ldd	r19, Y+5	; 0x05
     c70:	21 15       	cp	r18, r1
     c72:	31 05       	cpc	r19, r1
     c74:	69 f0       	breq	.+26     	; 0xc90 <GPIO_readPin+0x66>
     c76:	6b c0       	rjmp	.+214    	; 0xd4e <GPIO_readPin+0x124>
     c78:	4c 81       	ldd	r20, Y+4	; 0x04
     c7a:	5d 81       	ldd	r21, Y+5	; 0x05
     c7c:	42 30       	cpi	r20, 0x02	; 2
     c7e:	51 05       	cpc	r21, r1
     c80:	b9 f1       	breq	.+110    	; 0xcf0 <GPIO_readPin+0xc6>
     c82:	8c 81       	ldd	r24, Y+4	; 0x04
     c84:	9d 81       	ldd	r25, Y+5	; 0x05
     c86:	83 30       	cpi	r24, 0x03	; 3
     c88:	91 05       	cpc	r25, r1
     c8a:	09 f4       	brne	.+2      	; 0xc8e <GPIO_readPin+0x64>
     c8c:	49 c0       	rjmp	.+146    	; 0xd20 <GPIO_readPin+0xf6>
     c8e:	5f c0       	rjmp	.+190    	; 0xd4e <GPIO_readPin+0x124>
		{
		case PORTA_ID:
			if(BIT_IS_SET(PINA,pin_num))
     c90:	e9 e3       	ldi	r30, 0x39	; 57
     c92:	f0 e0       	ldi	r31, 0x00	; 0
     c94:	80 81       	ld	r24, Z
     c96:	28 2f       	mov	r18, r24
     c98:	30 e0       	ldi	r19, 0x00	; 0
     c9a:	8b 81       	ldd	r24, Y+3	; 0x03
     c9c:	88 2f       	mov	r24, r24
     c9e:	90 e0       	ldi	r25, 0x00	; 0
     ca0:	a9 01       	movw	r20, r18
     ca2:	02 c0       	rjmp	.+4      	; 0xca8 <GPIO_readPin+0x7e>
     ca4:	55 95       	asr	r21
     ca6:	47 95       	ror	r20
     ca8:	8a 95       	dec	r24
     caa:	e2 f7       	brpl	.-8      	; 0xca4 <GPIO_readPin+0x7a>
     cac:	ca 01       	movw	r24, r20
     cae:	81 70       	andi	r24, 0x01	; 1
     cb0:	90 70       	andi	r25, 0x00	; 0
     cb2:	88 23       	and	r24, r24
     cb4:	19 f0       	breq	.+6      	; 0xcbc <GPIO_readPin+0x92>
			{
				pin_value = LOGIC_HIGH;
     cb6:	81 e0       	ldi	r24, 0x01	; 1
     cb8:	89 83       	std	Y+1, r24	; 0x01
     cba:	49 c0       	rjmp	.+146    	; 0xd4e <GPIO_readPin+0x124>
			}
			else
			{
				pin_value = LOGIC_LOW;
     cbc:	19 82       	std	Y+1, r1	; 0x01
     cbe:	47 c0       	rjmp	.+142    	; 0xd4e <GPIO_readPin+0x124>
			}
			break;
		case PORTB_ID:
			if(BIT_IS_SET(PINB,pin_num))
     cc0:	e6 e3       	ldi	r30, 0x36	; 54
     cc2:	f0 e0       	ldi	r31, 0x00	; 0
     cc4:	80 81       	ld	r24, Z
     cc6:	28 2f       	mov	r18, r24
     cc8:	30 e0       	ldi	r19, 0x00	; 0
     cca:	8b 81       	ldd	r24, Y+3	; 0x03
     ccc:	88 2f       	mov	r24, r24
     cce:	90 e0       	ldi	r25, 0x00	; 0
     cd0:	a9 01       	movw	r20, r18
     cd2:	02 c0       	rjmp	.+4      	; 0xcd8 <GPIO_readPin+0xae>
     cd4:	55 95       	asr	r21
     cd6:	47 95       	ror	r20
     cd8:	8a 95       	dec	r24
     cda:	e2 f7       	brpl	.-8      	; 0xcd4 <GPIO_readPin+0xaa>
     cdc:	ca 01       	movw	r24, r20
     cde:	81 70       	andi	r24, 0x01	; 1
     ce0:	90 70       	andi	r25, 0x00	; 0
     ce2:	88 23       	and	r24, r24
     ce4:	19 f0       	breq	.+6      	; 0xcec <GPIO_readPin+0xc2>
			{
				pin_value = LOGIC_HIGH;
     ce6:	81 e0       	ldi	r24, 0x01	; 1
     ce8:	89 83       	std	Y+1, r24	; 0x01
     cea:	31 c0       	rjmp	.+98     	; 0xd4e <GPIO_readPin+0x124>
			}
			else
			{
				pin_value = LOGIC_LOW;
     cec:	19 82       	std	Y+1, r1	; 0x01
     cee:	2f c0       	rjmp	.+94     	; 0xd4e <GPIO_readPin+0x124>
			}
			break;
		case PORTC_ID:
			if(BIT_IS_SET(PINC,pin_num))
     cf0:	e3 e3       	ldi	r30, 0x33	; 51
     cf2:	f0 e0       	ldi	r31, 0x00	; 0
     cf4:	80 81       	ld	r24, Z
     cf6:	28 2f       	mov	r18, r24
     cf8:	30 e0       	ldi	r19, 0x00	; 0
     cfa:	8b 81       	ldd	r24, Y+3	; 0x03
     cfc:	88 2f       	mov	r24, r24
     cfe:	90 e0       	ldi	r25, 0x00	; 0
     d00:	a9 01       	movw	r20, r18
     d02:	02 c0       	rjmp	.+4      	; 0xd08 <GPIO_readPin+0xde>
     d04:	55 95       	asr	r21
     d06:	47 95       	ror	r20
     d08:	8a 95       	dec	r24
     d0a:	e2 f7       	brpl	.-8      	; 0xd04 <GPIO_readPin+0xda>
     d0c:	ca 01       	movw	r24, r20
     d0e:	81 70       	andi	r24, 0x01	; 1
     d10:	90 70       	andi	r25, 0x00	; 0
     d12:	88 23       	and	r24, r24
     d14:	19 f0       	breq	.+6      	; 0xd1c <GPIO_readPin+0xf2>
			{
				pin_value = LOGIC_HIGH;
     d16:	81 e0       	ldi	r24, 0x01	; 1
     d18:	89 83       	std	Y+1, r24	; 0x01
     d1a:	19 c0       	rjmp	.+50     	; 0xd4e <GPIO_readPin+0x124>
			}
			else
			{
				pin_value = LOGIC_LOW;
     d1c:	19 82       	std	Y+1, r1	; 0x01
     d1e:	17 c0       	rjmp	.+46     	; 0xd4e <GPIO_readPin+0x124>
			}
			break;
		case PORTD_ID:
			if(BIT_IS_SET(PIND,pin_num))
     d20:	e0 e3       	ldi	r30, 0x30	; 48
     d22:	f0 e0       	ldi	r31, 0x00	; 0
     d24:	80 81       	ld	r24, Z
     d26:	28 2f       	mov	r18, r24
     d28:	30 e0       	ldi	r19, 0x00	; 0
     d2a:	8b 81       	ldd	r24, Y+3	; 0x03
     d2c:	88 2f       	mov	r24, r24
     d2e:	90 e0       	ldi	r25, 0x00	; 0
     d30:	a9 01       	movw	r20, r18
     d32:	02 c0       	rjmp	.+4      	; 0xd38 <GPIO_readPin+0x10e>
     d34:	55 95       	asr	r21
     d36:	47 95       	ror	r20
     d38:	8a 95       	dec	r24
     d3a:	e2 f7       	brpl	.-8      	; 0xd34 <GPIO_readPin+0x10a>
     d3c:	ca 01       	movw	r24, r20
     d3e:	81 70       	andi	r24, 0x01	; 1
     d40:	90 70       	andi	r25, 0x00	; 0
     d42:	88 23       	and	r24, r24
     d44:	19 f0       	breq	.+6      	; 0xd4c <GPIO_readPin+0x122>
			{
				pin_value = LOGIC_HIGH;
     d46:	81 e0       	ldi	r24, 0x01	; 1
     d48:	89 83       	std	Y+1, r24	; 0x01
     d4a:	01 c0       	rjmp	.+2      	; 0xd4e <GPIO_readPin+0x124>
			}
			else
			{
				pin_value = LOGIC_LOW;
     d4c:	19 82       	std	Y+1, r1	; 0x01
			}
			break;
		}
	}

	return pin_value;
     d4e:	89 81       	ldd	r24, Y+1	; 0x01
}
     d50:	0f 90       	pop	r0
     d52:	0f 90       	pop	r0
     d54:	0f 90       	pop	r0
     d56:	0f 90       	pop	r0
     d58:	0f 90       	pop	r0
     d5a:	cf 91       	pop	r28
     d5c:	df 91       	pop	r29
     d5e:	08 95       	ret

00000d60 <GPIO_setupPortDirection>:
 * If the direction value is PORT_INPUT all pins in this port should be input pins.
 * If the direction value is PORT_OUTPUT all pins in this port should be output pins.
 * If the input port number is not correct, The function will not handle the request.
 */
void GPIO_setupPortDirection(uint8 port_num, GPIO_PortDirectionType direction)
{
     d60:	df 93       	push	r29
     d62:	cf 93       	push	r28
     d64:	00 d0       	rcall	.+0      	; 0xd66 <GPIO_setupPortDirection+0x6>
     d66:	00 d0       	rcall	.+0      	; 0xd68 <GPIO_setupPortDirection+0x8>
     d68:	cd b7       	in	r28, 0x3d	; 61
     d6a:	de b7       	in	r29, 0x3e	; 62
     d6c:	89 83       	std	Y+1, r24	; 0x01
     d6e:	6a 83       	std	Y+2, r22	; 0x02
	/*
	 * Check if the input number is greater than NUM_OF_PORTS value.
	 * In this case the input is not valid port number
	 */
	if(port_num >= NUM_OF_PORTS)
     d70:	89 81       	ldd	r24, Y+1	; 0x01
     d72:	84 30       	cpi	r24, 0x04	; 4
     d74:	90 f5       	brcc	.+100    	; 0xdda <GPIO_setupPortDirection+0x7a>
		/* Do Nothing */
	}
	else
	{
		/* Setup the port direction as required */
		switch(port_num)
     d76:	89 81       	ldd	r24, Y+1	; 0x01
     d78:	28 2f       	mov	r18, r24
     d7a:	30 e0       	ldi	r19, 0x00	; 0
     d7c:	3c 83       	std	Y+4, r19	; 0x04
     d7e:	2b 83       	std	Y+3, r18	; 0x03
     d80:	8b 81       	ldd	r24, Y+3	; 0x03
     d82:	9c 81       	ldd	r25, Y+4	; 0x04
     d84:	81 30       	cpi	r24, 0x01	; 1
     d86:	91 05       	cpc	r25, r1
     d88:	d1 f0       	breq	.+52     	; 0xdbe <GPIO_setupPortDirection+0x5e>
     d8a:	2b 81       	ldd	r18, Y+3	; 0x03
     d8c:	3c 81       	ldd	r19, Y+4	; 0x04
     d8e:	22 30       	cpi	r18, 0x02	; 2
     d90:	31 05       	cpc	r19, r1
     d92:	2c f4       	brge	.+10     	; 0xd9e <GPIO_setupPortDirection+0x3e>
     d94:	8b 81       	ldd	r24, Y+3	; 0x03
     d96:	9c 81       	ldd	r25, Y+4	; 0x04
     d98:	00 97       	sbiw	r24, 0x00	; 0
     d9a:	61 f0       	breq	.+24     	; 0xdb4 <GPIO_setupPortDirection+0x54>
     d9c:	1e c0       	rjmp	.+60     	; 0xdda <GPIO_setupPortDirection+0x7a>
     d9e:	2b 81       	ldd	r18, Y+3	; 0x03
     da0:	3c 81       	ldd	r19, Y+4	; 0x04
     da2:	22 30       	cpi	r18, 0x02	; 2
     da4:	31 05       	cpc	r19, r1
     da6:	81 f0       	breq	.+32     	; 0xdc8 <GPIO_setupPortDirection+0x68>
     da8:	8b 81       	ldd	r24, Y+3	; 0x03
     daa:	9c 81       	ldd	r25, Y+4	; 0x04
     dac:	83 30       	cpi	r24, 0x03	; 3
     dae:	91 05       	cpc	r25, r1
     db0:	81 f0       	breq	.+32     	; 0xdd2 <GPIO_setupPortDirection+0x72>
     db2:	13 c0       	rjmp	.+38     	; 0xdda <GPIO_setupPortDirection+0x7a>
		{
		case PORTA_ID:
			DDRA = direction;
     db4:	ea e3       	ldi	r30, 0x3A	; 58
     db6:	f0 e0       	ldi	r31, 0x00	; 0
     db8:	8a 81       	ldd	r24, Y+2	; 0x02
     dba:	80 83       	st	Z, r24
     dbc:	0e c0       	rjmp	.+28     	; 0xdda <GPIO_setupPortDirection+0x7a>
			break;
		case PORTB_ID:
			DDRB = direction;
     dbe:	e7 e3       	ldi	r30, 0x37	; 55
     dc0:	f0 e0       	ldi	r31, 0x00	; 0
     dc2:	8a 81       	ldd	r24, Y+2	; 0x02
     dc4:	80 83       	st	Z, r24
     dc6:	09 c0       	rjmp	.+18     	; 0xdda <GPIO_setupPortDirection+0x7a>
			break;
		case PORTC_ID:
			DDRC = direction;
     dc8:	e4 e3       	ldi	r30, 0x34	; 52
     dca:	f0 e0       	ldi	r31, 0x00	; 0
     dcc:	8a 81       	ldd	r24, Y+2	; 0x02
     dce:	80 83       	st	Z, r24
     dd0:	04 c0       	rjmp	.+8      	; 0xdda <GPIO_setupPortDirection+0x7a>
			break;
		case PORTD_ID:
			DDRD = direction;
     dd2:	e1 e3       	ldi	r30, 0x31	; 49
     dd4:	f0 e0       	ldi	r31, 0x00	; 0
     dd6:	8a 81       	ldd	r24, Y+2	; 0x02
     dd8:	80 83       	st	Z, r24
			break;
		}
	}
}
     dda:	0f 90       	pop	r0
     ddc:	0f 90       	pop	r0
     dde:	0f 90       	pop	r0
     de0:	0f 90       	pop	r0
     de2:	cf 91       	pop	r28
     de4:	df 91       	pop	r29
     de6:	08 95       	ret

00000de8 <GPIO_writePort>:
 * If any pin in the port is output pin the value will be written.
 * If any pin in the port is input pin this will activate/deactivate the internal pull-up resistor.
 * If the input port number is not correct, The function will not handle the request.
 */
void GPIO_writePort(uint8 port_num, uint8 value)
{
     de8:	df 93       	push	r29
     dea:	cf 93       	push	r28
     dec:	00 d0       	rcall	.+0      	; 0xdee <GPIO_writePort+0x6>
     dee:	00 d0       	rcall	.+0      	; 0xdf0 <GPIO_writePort+0x8>
     df0:	cd b7       	in	r28, 0x3d	; 61
     df2:	de b7       	in	r29, 0x3e	; 62
     df4:	89 83       	std	Y+1, r24	; 0x01
     df6:	6a 83       	std	Y+2, r22	; 0x02
	/*
	 * Check if the input number is greater than NUM_OF_PORTS value.
	 * In this case the input is not valid port number
	 */
	if(port_num >= NUM_OF_PORTS)
     df8:	89 81       	ldd	r24, Y+1	; 0x01
     dfa:	84 30       	cpi	r24, 0x04	; 4
     dfc:	90 f5       	brcc	.+100    	; 0xe62 <GPIO_writePort+0x7a>
		/* Do Nothing */
	}
	else
	{
		/* Write the port value as required */
		switch(port_num)
     dfe:	89 81       	ldd	r24, Y+1	; 0x01
     e00:	28 2f       	mov	r18, r24
     e02:	30 e0       	ldi	r19, 0x00	; 0
     e04:	3c 83       	std	Y+4, r19	; 0x04
     e06:	2b 83       	std	Y+3, r18	; 0x03
     e08:	8b 81       	ldd	r24, Y+3	; 0x03
     e0a:	9c 81       	ldd	r25, Y+4	; 0x04
     e0c:	81 30       	cpi	r24, 0x01	; 1
     e0e:	91 05       	cpc	r25, r1
     e10:	d1 f0       	breq	.+52     	; 0xe46 <GPIO_writePort+0x5e>
     e12:	2b 81       	ldd	r18, Y+3	; 0x03
     e14:	3c 81       	ldd	r19, Y+4	; 0x04
     e16:	22 30       	cpi	r18, 0x02	; 2
     e18:	31 05       	cpc	r19, r1
     e1a:	2c f4       	brge	.+10     	; 0xe26 <GPIO_writePort+0x3e>
     e1c:	8b 81       	ldd	r24, Y+3	; 0x03
     e1e:	9c 81       	ldd	r25, Y+4	; 0x04
     e20:	00 97       	sbiw	r24, 0x00	; 0
     e22:	61 f0       	breq	.+24     	; 0xe3c <GPIO_writePort+0x54>
     e24:	1e c0       	rjmp	.+60     	; 0xe62 <GPIO_writePort+0x7a>
     e26:	2b 81       	ldd	r18, Y+3	; 0x03
     e28:	3c 81       	ldd	r19, Y+4	; 0x04
     e2a:	22 30       	cpi	r18, 0x02	; 2
     e2c:	31 05       	cpc	r19, r1
     e2e:	81 f0       	breq	.+32     	; 0xe50 <GPIO_writePort+0x68>
     e30:	8b 81       	ldd	r24, Y+3	; 0x03
     e32:	9c 81       	ldd	r25, Y+4	; 0x04
     e34:	83 30       	cpi	r24, 0x03	; 3
     e36:	91 05       	cpc	r25, r1
     e38:	81 f0       	breq	.+32     	; 0xe5a <GPIO_writePort+0x72>
     e3a:	13 c0       	rjmp	.+38     	; 0xe62 <GPIO_writePort+0x7a>
		{
		case PORTA_ID:
			PORTA = value;
     e3c:	eb e3       	ldi	r30, 0x3B	; 59
     e3e:	f0 e0       	ldi	r31, 0x00	; 0
     e40:	8a 81       	ldd	r24, Y+2	; 0x02
     e42:	80 83       	st	Z, r24
     e44:	0e c0       	rjmp	.+28     	; 0xe62 <GPIO_writePort+0x7a>
			break;
		case PORTB_ID:
			PORTB = value;
     e46:	e8 e3       	ldi	r30, 0x38	; 56
     e48:	f0 e0       	ldi	r31, 0x00	; 0
     e4a:	8a 81       	ldd	r24, Y+2	; 0x02
     e4c:	80 83       	st	Z, r24
     e4e:	09 c0       	rjmp	.+18     	; 0xe62 <GPIO_writePort+0x7a>
			break;
		case PORTC_ID:
			PORTC = value;
     e50:	e5 e3       	ldi	r30, 0x35	; 53
     e52:	f0 e0       	ldi	r31, 0x00	; 0
     e54:	8a 81       	ldd	r24, Y+2	; 0x02
     e56:	80 83       	st	Z, r24
     e58:	04 c0       	rjmp	.+8      	; 0xe62 <GPIO_writePort+0x7a>
			break;
		case PORTD_ID:
			PORTD = value;
     e5a:	e2 e3       	ldi	r30, 0x32	; 50
     e5c:	f0 e0       	ldi	r31, 0x00	; 0
     e5e:	8a 81       	ldd	r24, Y+2	; 0x02
     e60:	80 83       	st	Z, r24
			break;
		}
	}
}
     e62:	0f 90       	pop	r0
     e64:	0f 90       	pop	r0
     e66:	0f 90       	pop	r0
     e68:	0f 90       	pop	r0
     e6a:	cf 91       	pop	r28
     e6c:	df 91       	pop	r29
     e6e:	08 95       	ret

00000e70 <GPIO_readPort>:
 * Description :
 * Read and return the value of the required port.
 * If the input port number is not correct, The function will return ZERO value.
 */
uint8 GPIO_readPort(uint8 port_num)
{
     e70:	df 93       	push	r29
     e72:	cf 93       	push	r28
     e74:	00 d0       	rcall	.+0      	; 0xe76 <GPIO_readPort+0x6>
     e76:	00 d0       	rcall	.+0      	; 0xe78 <GPIO_readPort+0x8>
     e78:	cd b7       	in	r28, 0x3d	; 61
     e7a:	de b7       	in	r29, 0x3e	; 62
     e7c:	8a 83       	std	Y+2, r24	; 0x02
	uint8 value = LOGIC_LOW;
     e7e:	19 82       	std	Y+1, r1	; 0x01

	/*
	 * Check if the input number is greater than NUM_OF_PORTS value.
	 * In this case the input is not valid port number
	 */
	if(port_num >= NUM_OF_PORTS)
     e80:	8a 81       	ldd	r24, Y+2	; 0x02
     e82:	84 30       	cpi	r24, 0x04	; 4
     e84:	90 f5       	brcc	.+100    	; 0xeea <GPIO_readPort+0x7a>
		/* Do Nothing */
	}
	else
	{
		/* Read the port value as required */
		switch(port_num)
     e86:	8a 81       	ldd	r24, Y+2	; 0x02
     e88:	28 2f       	mov	r18, r24
     e8a:	30 e0       	ldi	r19, 0x00	; 0
     e8c:	3c 83       	std	Y+4, r19	; 0x04
     e8e:	2b 83       	std	Y+3, r18	; 0x03
     e90:	8b 81       	ldd	r24, Y+3	; 0x03
     e92:	9c 81       	ldd	r25, Y+4	; 0x04
     e94:	81 30       	cpi	r24, 0x01	; 1
     e96:	91 05       	cpc	r25, r1
     e98:	d1 f0       	breq	.+52     	; 0xece <GPIO_readPort+0x5e>
     e9a:	2b 81       	ldd	r18, Y+3	; 0x03
     e9c:	3c 81       	ldd	r19, Y+4	; 0x04
     e9e:	22 30       	cpi	r18, 0x02	; 2
     ea0:	31 05       	cpc	r19, r1
     ea2:	2c f4       	brge	.+10     	; 0xeae <GPIO_readPort+0x3e>
     ea4:	8b 81       	ldd	r24, Y+3	; 0x03
     ea6:	9c 81       	ldd	r25, Y+4	; 0x04
     ea8:	00 97       	sbiw	r24, 0x00	; 0
     eaa:	61 f0       	breq	.+24     	; 0xec4 <GPIO_readPort+0x54>
     eac:	1e c0       	rjmp	.+60     	; 0xeea <GPIO_readPort+0x7a>
     eae:	2b 81       	ldd	r18, Y+3	; 0x03
     eb0:	3c 81       	ldd	r19, Y+4	; 0x04
     eb2:	22 30       	cpi	r18, 0x02	; 2
     eb4:	31 05       	cpc	r19, r1
     eb6:	81 f0       	breq	.+32     	; 0xed8 <GPIO_readPort+0x68>
     eb8:	8b 81       	ldd	r24, Y+3	; 0x03
     eba:	9c 81       	ldd	r25, Y+4	; 0x04
     ebc:	83 30       	cpi	r24, 0x03	; 3
     ebe:	91 05       	cpc	r25, r1
     ec0:	81 f0       	breq	.+32     	; 0xee2 <GPIO_readPort+0x72>
     ec2:	13 c0       	rjmp	.+38     	; 0xeea <GPIO_readPort+0x7a>
		{
		case PORTA_ID:
			value = PINA;
     ec4:	e9 e3       	ldi	r30, 0x39	; 57
     ec6:	f0 e0       	ldi	r31, 0x00	; 0
     ec8:	80 81       	ld	r24, Z
     eca:	89 83       	std	Y+1, r24	; 0x01
     ecc:	0e c0       	rjmp	.+28     	; 0xeea <GPIO_readPort+0x7a>
			break;
		case PORTB_ID:
			value = PINB;
     ece:	e6 e3       	ldi	r30, 0x36	; 54
     ed0:	f0 e0       	ldi	r31, 0x00	; 0
     ed2:	80 81       	ld	r24, Z
     ed4:	89 83       	std	Y+1, r24	; 0x01
     ed6:	09 c0       	rjmp	.+18     	; 0xeea <GPIO_readPort+0x7a>
			break;
		case PORTC_ID:
			value = PINC;
     ed8:	e3 e3       	ldi	r30, 0x33	; 51
     eda:	f0 e0       	ldi	r31, 0x00	; 0
     edc:	80 81       	ld	r24, Z
     ede:	89 83       	std	Y+1, r24	; 0x01
     ee0:	04 c0       	rjmp	.+8      	; 0xeea <GPIO_readPort+0x7a>
			break;
		case PORTD_ID:
			value = PIND;
     ee2:	e0 e3       	ldi	r30, 0x30	; 48
     ee4:	f0 e0       	ldi	r31, 0x00	; 0
     ee6:	80 81       	ld	r24, Z
     ee8:	89 83       	std	Y+1, r24	; 0x01
			break;
		}
	}

	return value;
     eea:	89 81       	ldd	r24, Y+1	; 0x01
}
     eec:	0f 90       	pop	r0
     eee:	0f 90       	pop	r0
     ef0:	0f 90       	pop	r0
     ef2:	0f 90       	pop	r0
     ef4:	cf 91       	pop	r28
     ef6:	df 91       	pop	r29
     ef8:	08 95       	ret

00000efa <TIMER_Init>:
/*
 * Description:
 * Initialize timer 0, 1 or 2 with specified configurations:
 */
void TIMER_Init( TIMER_ConfigType* config )
{
     efa:	df 93       	push	r29
     efc:	cf 93       	push	r28
     efe:	cd b7       	in	r28, 0x3d	; 61
     f00:	de b7       	in	r29, 0x3e	; 62
     f02:	2a 97       	sbiw	r28, 0x0a	; 10
     f04:	0f b6       	in	r0, 0x3f	; 63
     f06:	f8 94       	cli
     f08:	de bf       	out	0x3e, r29	; 62
     f0a:	0f be       	out	0x3f, r0	; 63
     f0c:	cd bf       	out	0x3d, r28	; 61
     f0e:	9a 83       	std	Y+2, r25	; 0x02
     f10:	89 83       	std	Y+1, r24	; 0x01
	/* Select the required timer. */
	switch(config->timerID)
     f12:	e9 81       	ldd	r30, Y+1	; 0x01
     f14:	fa 81       	ldd	r31, Y+2	; 0x02
     f16:	80 81       	ld	r24, Z
     f18:	28 2f       	mov	r18, r24
     f1a:	30 e0       	ldi	r19, 0x00	; 0
     f1c:	3a 87       	std	Y+10, r19	; 0x0a
     f1e:	29 87       	std	Y+9, r18	; 0x09
     f20:	89 85       	ldd	r24, Y+9	; 0x09
     f22:	9a 85       	ldd	r25, Y+10	; 0x0a
     f24:	81 30       	cpi	r24, 0x01	; 1
     f26:	91 05       	cpc	r25, r1
     f28:	09 f4       	brne	.+2      	; 0xf2c <TIMER_Init+0x32>
     f2a:	51 c0       	rjmp	.+162    	; 0xfce <TIMER_Init+0xd4>
     f2c:	29 85       	ldd	r18, Y+9	; 0x09
     f2e:	3a 85       	ldd	r19, Y+10	; 0x0a
     f30:	22 30       	cpi	r18, 0x02	; 2
     f32:	31 05       	cpc	r19, r1
     f34:	09 f4       	brne	.+2      	; 0xf38 <TIMER_Init+0x3e>
     f36:	95 c0       	rjmp	.+298    	; 0x1062 <TIMER_Init+0x168>
     f38:	89 85       	ldd	r24, Y+9	; 0x09
     f3a:	9a 85       	ldd	r25, Y+10	; 0x0a
     f3c:	00 97       	sbiw	r24, 0x00	; 0
     f3e:	09 f0       	breq	.+2      	; 0xf42 <TIMER_Init+0x48>
     f40:	d5 c0       	rjmp	.+426    	; 0x10ec <TIMER_Init+0x1f2>
	{
	/***********************************TIMER0***********************************/
	case TIMER0_ID:
		/* Put the required initial value of timer in the timer0 8bits counter register.*/
		TCNT0 = (uint8)config->initialValue;
     f42:	a2 e5       	ldi	r26, 0x52	; 82
     f44:	b0 e0       	ldi	r27, 0x00	; 0
     f46:	e9 81       	ldd	r30, Y+1	; 0x01
     f48:	fa 81       	ldd	r31, Y+2	; 0x02
     f4a:	82 81       	ldd	r24, Z+2	; 0x02
     f4c:	93 81       	ldd	r25, Z+3	; 0x03
     f4e:	8c 93       	st	X, r24
		 * FOC0 = 1 Non PWM mode.
		 * WGM01:0 = 00 if Normal(overflow) mode and = 10 in Compare mode.
		 * COM01:0 = 00 if Normal(overflow) mode and = 00 in Compare mode.
		 * CS02:0 = 000 if no clock source and a value = TIMER_Prescaler if there is a clock.
		 */
		TCCR0 = (1<<FOC0);
     f50:	e3 e5       	ldi	r30, 0x53	; 83
     f52:	f0 e0       	ldi	r31, 0x00	; 0
     f54:	80 e8       	ldi	r24, 0x80	; 128
     f56:	80 83       	st	Z, r24
		/* Inserting clock in the first three bits in TCCR0. */
		TCCR0 = (TCCR0&~(0x07)) | (config->prescaler);
     f58:	a3 e5       	ldi	r26, 0x53	; 83
     f5a:	b0 e0       	ldi	r27, 0x00	; 0
     f5c:	e3 e5       	ldi	r30, 0x53	; 83
     f5e:	f0 e0       	ldi	r31, 0x00	; 0
     f60:	80 81       	ld	r24, Z
     f62:	98 2f       	mov	r25, r24
     f64:	98 7f       	andi	r25, 0xF8	; 248
     f66:	e9 81       	ldd	r30, Y+1	; 0x01
     f68:	fa 81       	ldd	r31, Y+2	; 0x02
     f6a:	86 81       	ldd	r24, Z+6	; 0x06
     f6c:	89 2b       	or	r24, r25
     f6e:	8c 93       	st	X, r24
		switch(config->mode)
     f70:	e9 81       	ldd	r30, Y+1	; 0x01
     f72:	fa 81       	ldd	r31, Y+2	; 0x02
     f74:	81 81       	ldd	r24, Z+1	; 0x01
     f76:	28 2f       	mov	r18, r24
     f78:	30 e0       	ldi	r19, 0x00	; 0
     f7a:	38 87       	std	Y+8, r19	; 0x08
     f7c:	2f 83       	std	Y+7, r18	; 0x07
     f7e:	8f 81       	ldd	r24, Y+7	; 0x07
     f80:	98 85       	ldd	r25, Y+8	; 0x08
     f82:	00 97       	sbiw	r24, 0x00	; 0
     f84:	31 f0       	breq	.+12     	; 0xf92 <TIMER_Init+0x98>
     f86:	2f 81       	ldd	r18, Y+7	; 0x07
     f88:	38 85       	ldd	r19, Y+8	; 0x08
     f8a:	21 30       	cpi	r18, 0x01	; 1
     f8c:	31 05       	cpc	r19, r1
     f8e:	49 f0       	breq	.+18     	; 0xfa2 <TIMER_Init+0xa8>
     f90:	ad c0       	rjmp	.+346    	; 0x10ec <TIMER_Init+0x1f2>
		{
		case OVERFLOW_MODE:
			/* Enable overflow interrupt for required mode. */
			TIMSK |= (1<<TOIE0);
     f92:	a9 e5       	ldi	r26, 0x59	; 89
     f94:	b0 e0       	ldi	r27, 0x00	; 0
     f96:	e9 e5       	ldi	r30, 0x59	; 89
     f98:	f0 e0       	ldi	r31, 0x00	; 0
     f9a:	80 81       	ld	r24, Z
     f9c:	81 60       	ori	r24, 0x01	; 1
     f9e:	8c 93       	st	X, r24
     fa0:	a5 c0       	rjmp	.+330    	; 0x10ec <TIMER_Init+0x1f2>
			break;
			/* Set bits that need to be set in compare mode, otherwise let them 0s. */
		case COMPARE_MODE:
			TCCR0 |= (1<<WGM01);
     fa2:	a3 e5       	ldi	r26, 0x53	; 83
     fa4:	b0 e0       	ldi	r27, 0x00	; 0
     fa6:	e3 e5       	ldi	r30, 0x53	; 83
     fa8:	f0 e0       	ldi	r31, 0x00	; 0
     faa:	80 81       	ld	r24, Z
     fac:	88 60       	ori	r24, 0x08	; 8
     fae:	8c 93       	st	X, r24
			/* Store compare value in case of mode is COMPARE_MODE. */
			OCR0 = config->compareValue;
     fb0:	ac e5       	ldi	r26, 0x5C	; 92
     fb2:	b0 e0       	ldi	r27, 0x00	; 0
     fb4:	e9 81       	ldd	r30, Y+1	; 0x01
     fb6:	fa 81       	ldd	r31, Y+2	; 0x02
     fb8:	84 81       	ldd	r24, Z+4	; 0x04
     fba:	95 81       	ldd	r25, Z+5	; 0x05
     fbc:	8c 93       	st	X, r24
			/* Enable compare match interrupt for required mode. */
			TIMSK |= (1<<OCIE0);
     fbe:	a9 e5       	ldi	r26, 0x59	; 89
     fc0:	b0 e0       	ldi	r27, 0x00	; 0
     fc2:	e9 e5       	ldi	r30, 0x59	; 89
     fc4:	f0 e0       	ldi	r31, 0x00	; 0
     fc6:	80 81       	ld	r24, Z
     fc8:	82 60       	ori	r24, 0x02	; 2
     fca:	8c 93       	st	X, r24
     fcc:	8f c0       	rjmp	.+286    	; 0x10ec <TIMER_Init+0x1f2>
		}
		break;
		/***********************************TIMER1***********************************/
		case TIMER1_ID:
			/* Put the required initial value of timer in the timer1 16 bits counter register.*/
			TCNT1 = config->initialValue;
     fce:	ac e4       	ldi	r26, 0x4C	; 76
     fd0:	b0 e0       	ldi	r27, 0x00	; 0
     fd2:	e9 81       	ldd	r30, Y+1	; 0x01
     fd4:	fa 81       	ldd	r31, Y+2	; 0x02
     fd6:	82 81       	ldd	r24, Z+2	; 0x02
     fd8:	93 81       	ldd	r25, Z+3	; 0x03
     fda:	11 96       	adiw	r26, 0x01	; 1
     fdc:	9c 93       	st	X, r25
     fde:	8e 93       	st	-X, r24
			 * FOC1A,FOC1B = 1 Non PWM mode.
			 * WGM01:0 = 00 if Normal(overflow) mode and = 10 in Compare mode.
			 * COM1A1:0 = 00 if Normal(overflow) mode and = 00 in Compare mode.
			 * CS02:0 = 000 if no clock source and a value = TIMER_Prescaler if there is a clock.
			 */
			TCCR1A = (1<<FOC1A) | (1<<FOC1B);
     fe0:	ef e4       	ldi	r30, 0x4F	; 79
     fe2:	f0 e0       	ldi	r31, 0x00	; 0
     fe4:	8c e0       	ldi	r24, 0x0C	; 12
     fe6:	80 83       	st	Z, r24
			/* Inserting clock in the first three bits in TCCR0. */
			TCCR1B = (TCCR1B&~(0x07)) | (config->prescaler);
     fe8:	ae e4       	ldi	r26, 0x4E	; 78
     fea:	b0 e0       	ldi	r27, 0x00	; 0
     fec:	ee e4       	ldi	r30, 0x4E	; 78
     fee:	f0 e0       	ldi	r31, 0x00	; 0
     ff0:	80 81       	ld	r24, Z
     ff2:	98 2f       	mov	r25, r24
     ff4:	98 7f       	andi	r25, 0xF8	; 248
     ff6:	e9 81       	ldd	r30, Y+1	; 0x01
     ff8:	fa 81       	ldd	r31, Y+2	; 0x02
     ffa:	86 81       	ldd	r24, Z+6	; 0x06
     ffc:	89 2b       	or	r24, r25
     ffe:	8c 93       	st	X, r24
			switch(config->mode)
    1000:	e9 81       	ldd	r30, Y+1	; 0x01
    1002:	fa 81       	ldd	r31, Y+2	; 0x02
    1004:	81 81       	ldd	r24, Z+1	; 0x01
    1006:	28 2f       	mov	r18, r24
    1008:	30 e0       	ldi	r19, 0x00	; 0
    100a:	3e 83       	std	Y+6, r19	; 0x06
    100c:	2d 83       	std	Y+5, r18	; 0x05
    100e:	8d 81       	ldd	r24, Y+5	; 0x05
    1010:	9e 81       	ldd	r25, Y+6	; 0x06
    1012:	00 97       	sbiw	r24, 0x00	; 0
    1014:	31 f0       	breq	.+12     	; 0x1022 <TIMER_Init+0x128>
    1016:	2d 81       	ldd	r18, Y+5	; 0x05
    1018:	3e 81       	ldd	r19, Y+6	; 0x06
    101a:	21 30       	cpi	r18, 0x01	; 1
    101c:	31 05       	cpc	r19, r1
    101e:	49 f0       	breq	.+18     	; 0x1032 <TIMER_Init+0x138>
    1020:	65 c0       	rjmp	.+202    	; 0x10ec <TIMER_Init+0x1f2>
			{
			case OVERFLOW_MODE:
				/* Enable overflow interrupt for required mode. */
				TIMSK |= (1<<TOIE1);
    1022:	a9 e5       	ldi	r26, 0x59	; 89
    1024:	b0 e0       	ldi	r27, 0x00	; 0
    1026:	e9 e5       	ldi	r30, 0x59	; 89
    1028:	f0 e0       	ldi	r31, 0x00	; 0
    102a:	80 81       	ld	r24, Z
    102c:	84 60       	ori	r24, 0x04	; 4
    102e:	8c 93       	st	X, r24
    1030:	5d c0       	rjmp	.+186    	; 0x10ec <TIMER_Init+0x1f2>
				break;
				/* Set bits that need to be set in compare mode, otherwise let them 0s. */
			case COMPARE_MODE:
				TCCR1B |= (1<<WGM12);
    1032:	ae e4       	ldi	r26, 0x4E	; 78
    1034:	b0 e0       	ldi	r27, 0x00	; 0
    1036:	ee e4       	ldi	r30, 0x4E	; 78
    1038:	f0 e0       	ldi	r31, 0x00	; 0
    103a:	80 81       	ld	r24, Z
    103c:	88 60       	ori	r24, 0x08	; 8
    103e:	8c 93       	st	X, r24
				/* Store compare value in case of mode is COMPARE_MODE. */
				OCR1A = config->compareValue;
    1040:	aa e4       	ldi	r26, 0x4A	; 74
    1042:	b0 e0       	ldi	r27, 0x00	; 0
    1044:	e9 81       	ldd	r30, Y+1	; 0x01
    1046:	fa 81       	ldd	r31, Y+2	; 0x02
    1048:	84 81       	ldd	r24, Z+4	; 0x04
    104a:	95 81       	ldd	r25, Z+5	; 0x05
    104c:	11 96       	adiw	r26, 0x01	; 1
    104e:	9c 93       	st	X, r25
    1050:	8e 93       	st	-X, r24
				/* Enable compare match interrupt for required mode. */
				TIMSK |= (1<<OCIE1A);
    1052:	a9 e5       	ldi	r26, 0x59	; 89
    1054:	b0 e0       	ldi	r27, 0x00	; 0
    1056:	e9 e5       	ldi	r30, 0x59	; 89
    1058:	f0 e0       	ldi	r31, 0x00	; 0
    105a:	80 81       	ld	r24, Z
    105c:	80 61       	ori	r24, 0x10	; 16
    105e:	8c 93       	st	X, r24
    1060:	45 c0       	rjmp	.+138    	; 0x10ec <TIMER_Init+0x1f2>
			}
			break;
			/***********************************TIMER2***********************************/
			case TIMER2_ID:
				/* Put the required initial value of timer in the timer2 8bits counter register.*/
				TCNT2 = (uint8)config->initialValue;
    1062:	a4 e4       	ldi	r26, 0x44	; 68
    1064:	b0 e0       	ldi	r27, 0x00	; 0
    1066:	e9 81       	ldd	r30, Y+1	; 0x01
    1068:	fa 81       	ldd	r31, Y+2	; 0x02
    106a:	82 81       	ldd	r24, Z+2	; 0x02
    106c:	93 81       	ldd	r25, Z+3	; 0x03
    106e:	8c 93       	st	X, r24
				 * FOC2 = 1 Non PWM mode.
				 * WGM21:0 = 00 if Normal(overflow) mode and = 10 in Compare mode.
				 * COM01:0 = 00 if Normal(overflow) mode and = 00 in Compare mode.
				 * CS22:0 = 000 if no clock source and a value = TIMER_Prescaler if there is a clock.
				 */
				TCCR2 = (1<<FOC2);
    1070:	e5 e4       	ldi	r30, 0x45	; 69
    1072:	f0 e0       	ldi	r31, 0x00	; 0
    1074:	80 e8       	ldi	r24, 0x80	; 128
    1076:	80 83       	st	Z, r24
				/* Inserting clock in the first three bits in TCCR0. */
				TCCR2 = (TCCR2&~(0x07)) | (config->prescaler);
    1078:	a5 e4       	ldi	r26, 0x45	; 69
    107a:	b0 e0       	ldi	r27, 0x00	; 0
    107c:	e5 e4       	ldi	r30, 0x45	; 69
    107e:	f0 e0       	ldi	r31, 0x00	; 0
    1080:	80 81       	ld	r24, Z
    1082:	98 2f       	mov	r25, r24
    1084:	98 7f       	andi	r25, 0xF8	; 248
    1086:	e9 81       	ldd	r30, Y+1	; 0x01
    1088:	fa 81       	ldd	r31, Y+2	; 0x02
    108a:	86 81       	ldd	r24, Z+6	; 0x06
    108c:	89 2b       	or	r24, r25
    108e:	8c 93       	st	X, r24
				switch(config->mode)
    1090:	e9 81       	ldd	r30, Y+1	; 0x01
    1092:	fa 81       	ldd	r31, Y+2	; 0x02
    1094:	81 81       	ldd	r24, Z+1	; 0x01
    1096:	28 2f       	mov	r18, r24
    1098:	30 e0       	ldi	r19, 0x00	; 0
    109a:	3c 83       	std	Y+4, r19	; 0x04
    109c:	2b 83       	std	Y+3, r18	; 0x03
    109e:	8b 81       	ldd	r24, Y+3	; 0x03
    10a0:	9c 81       	ldd	r25, Y+4	; 0x04
    10a2:	00 97       	sbiw	r24, 0x00	; 0
    10a4:	31 f0       	breq	.+12     	; 0x10b2 <TIMER_Init+0x1b8>
    10a6:	2b 81       	ldd	r18, Y+3	; 0x03
    10a8:	3c 81       	ldd	r19, Y+4	; 0x04
    10aa:	21 30       	cpi	r18, 0x01	; 1
    10ac:	31 05       	cpc	r19, r1
    10ae:	49 f0       	breq	.+18     	; 0x10c2 <TIMER_Init+0x1c8>
    10b0:	1d c0       	rjmp	.+58     	; 0x10ec <TIMER_Init+0x1f2>
				{
				case OVERFLOW_MODE:
					/* Enable overflow interrupt for required mode. */
					TIMSK |= (1<<TOIE2);
    10b2:	a9 e5       	ldi	r26, 0x59	; 89
    10b4:	b0 e0       	ldi	r27, 0x00	; 0
    10b6:	e9 e5       	ldi	r30, 0x59	; 89
    10b8:	f0 e0       	ldi	r31, 0x00	; 0
    10ba:	80 81       	ld	r24, Z
    10bc:	80 64       	ori	r24, 0x40	; 64
    10be:	8c 93       	st	X, r24
    10c0:	15 c0       	rjmp	.+42     	; 0x10ec <TIMER_Init+0x1f2>
					break;
					/* Set bits that need to be set in compare mode, otherwise let them 0s. */
				case COMPARE_MODE:
					TCCR2 |= (1<<WGM21);
    10c2:	a5 e4       	ldi	r26, 0x45	; 69
    10c4:	b0 e0       	ldi	r27, 0x00	; 0
    10c6:	e5 e4       	ldi	r30, 0x45	; 69
    10c8:	f0 e0       	ldi	r31, 0x00	; 0
    10ca:	80 81       	ld	r24, Z
    10cc:	88 60       	ori	r24, 0x08	; 8
    10ce:	8c 93       	st	X, r24
					/* Store compare value in case of mode is COMPARE_MODE. */
					OCR2 = config->compareValue;
    10d0:	a3 e4       	ldi	r26, 0x43	; 67
    10d2:	b0 e0       	ldi	r27, 0x00	; 0
    10d4:	e9 81       	ldd	r30, Y+1	; 0x01
    10d6:	fa 81       	ldd	r31, Y+2	; 0x02
    10d8:	84 81       	ldd	r24, Z+4	; 0x04
    10da:	95 81       	ldd	r25, Z+5	; 0x05
    10dc:	8c 93       	st	X, r24
					/* Enable compare match interrupt for required mode. */
					TIMSK |= (1<<OCIE2);
    10de:	a9 e5       	ldi	r26, 0x59	; 89
    10e0:	b0 e0       	ldi	r27, 0x00	; 0
    10e2:	e9 e5       	ldi	r30, 0x59	; 89
    10e4:	f0 e0       	ldi	r31, 0x00	; 0
    10e6:	80 81       	ld	r24, Z
    10e8:	80 68       	ori	r24, 0x80	; 128
    10ea:	8c 93       	st	X, r24
					break;
				}
	}
}
    10ec:	2a 96       	adiw	r28, 0x0a	; 10
    10ee:	0f b6       	in	r0, 0x3f	; 63
    10f0:	f8 94       	cli
    10f2:	de bf       	out	0x3e, r29	; 62
    10f4:	0f be       	out	0x3f, r0	; 63
    10f6:	cd bf       	out	0x3d, r28	; 61
    10f8:	cf 91       	pop	r28
    10fa:	df 91       	pop	r29
    10fc:	08 95       	ret

000010fe <TIMER_setCallBack>:
/*
 * Description:
 * Function to set the Call Back function address.
 */
void TIMER_setCallBack( void(*a_ptr)( void ), TIMER_ID timerID)
{
    10fe:	df 93       	push	r29
    1100:	cf 93       	push	r28
    1102:	00 d0       	rcall	.+0      	; 0x1104 <TIMER_setCallBack+0x6>
    1104:	00 d0       	rcall	.+0      	; 0x1106 <TIMER_setCallBack+0x8>
    1106:	0f 92       	push	r0
    1108:	cd b7       	in	r28, 0x3d	; 61
    110a:	de b7       	in	r29, 0x3e	; 62
    110c:	9a 83       	std	Y+2, r25	; 0x02
    110e:	89 83       	std	Y+1, r24	; 0x01
    1110:	6b 83       	std	Y+3, r22	; 0x03
	/* Save the address of the Call back function in a global variable */
	switch(timerID)
    1112:	8b 81       	ldd	r24, Y+3	; 0x03
    1114:	28 2f       	mov	r18, r24
    1116:	30 e0       	ldi	r19, 0x00	; 0
    1118:	3d 83       	std	Y+5, r19	; 0x05
    111a:	2c 83       	std	Y+4, r18	; 0x04
    111c:	8c 81       	ldd	r24, Y+4	; 0x04
    111e:	9d 81       	ldd	r25, Y+5	; 0x05
    1120:	81 30       	cpi	r24, 0x01	; 1
    1122:	91 05       	cpc	r25, r1
    1124:	81 f0       	breq	.+32     	; 0x1146 <TIMER_setCallBack+0x48>
    1126:	2c 81       	ldd	r18, Y+4	; 0x04
    1128:	3d 81       	ldd	r19, Y+5	; 0x05
    112a:	22 30       	cpi	r18, 0x02	; 2
    112c:	31 05       	cpc	r19, r1
    112e:	91 f0       	breq	.+36     	; 0x1154 <TIMER_setCallBack+0x56>
    1130:	8c 81       	ldd	r24, Y+4	; 0x04
    1132:	9d 81       	ldd	r25, Y+5	; 0x05
    1134:	00 97       	sbiw	r24, 0x00	; 0
    1136:	a1 f4       	brne	.+40     	; 0x1160 <TIMER_setCallBack+0x62>
	{
	case TIMER0_ID:
		g_timer0CallBackPtr = a_ptr;
    1138:	89 81       	ldd	r24, Y+1	; 0x01
    113a:	9a 81       	ldd	r25, Y+2	; 0x02
    113c:	90 93 77 00 	sts	0x0077, r25
    1140:	80 93 76 00 	sts	0x0076, r24
    1144:	0d c0       	rjmp	.+26     	; 0x1160 <TIMER_setCallBack+0x62>
		break;
	case TIMER1_ID:
		g_timer1CallBackPtr = a_ptr;
    1146:	89 81       	ldd	r24, Y+1	; 0x01
    1148:	9a 81       	ldd	r25, Y+2	; 0x02
    114a:	90 93 79 00 	sts	0x0079, r25
    114e:	80 93 78 00 	sts	0x0078, r24
    1152:	06 c0       	rjmp	.+12     	; 0x1160 <TIMER_setCallBack+0x62>
		break;
	case TIMER2_ID:
		g_timer2CallBackPtr = a_ptr;
    1154:	89 81       	ldd	r24, Y+1	; 0x01
    1156:	9a 81       	ldd	r25, Y+2	; 0x02
    1158:	90 93 7b 00 	sts	0x007B, r25
    115c:	80 93 7a 00 	sts	0x007A, r24
		break;
	}
}
    1160:	0f 90       	pop	r0
    1162:	0f 90       	pop	r0
    1164:	0f 90       	pop	r0
    1166:	0f 90       	pop	r0
    1168:	0f 90       	pop	r0
    116a:	cf 91       	pop	r28
    116c:	df 91       	pop	r29
    116e:	08 95       	ret

00001170 <TIMER_Deinit>:
/*
 * Description:
 * Stops the timer by stopping its clock.
 */
void TIMER_Deinit( TIMER_ID timerID )
{
    1170:	df 93       	push	r29
    1172:	cf 93       	push	r28
    1174:	00 d0       	rcall	.+0      	; 0x1176 <TIMER_Deinit+0x6>
    1176:	0f 92       	push	r0
    1178:	cd b7       	in	r28, 0x3d	; 61
    117a:	de b7       	in	r29, 0x3e	; 62
    117c:	89 83       	std	Y+1, r24	; 0x01
	switch(timerID)
    117e:	89 81       	ldd	r24, Y+1	; 0x01
    1180:	28 2f       	mov	r18, r24
    1182:	30 e0       	ldi	r19, 0x00	; 0
    1184:	3b 83       	std	Y+3, r19	; 0x03
    1186:	2a 83       	std	Y+2, r18	; 0x02
    1188:	8a 81       	ldd	r24, Y+2	; 0x02
    118a:	9b 81       	ldd	r25, Y+3	; 0x03
    118c:	81 30       	cpi	r24, 0x01	; 1
    118e:	91 05       	cpc	r25, r1
    1190:	69 f0       	breq	.+26     	; 0x11ac <TIMER_Deinit+0x3c>
    1192:	2a 81       	ldd	r18, Y+2	; 0x02
    1194:	3b 81       	ldd	r19, Y+3	; 0x03
    1196:	22 30       	cpi	r18, 0x02	; 2
    1198:	31 05       	cpc	r19, r1
    119a:	61 f0       	breq	.+24     	; 0x11b4 <TIMER_Deinit+0x44>
    119c:	8a 81       	ldd	r24, Y+2	; 0x02
    119e:	9b 81       	ldd	r25, Y+3	; 0x03
    11a0:	00 97       	sbiw	r24, 0x00	; 0
    11a2:	59 f4       	brne	.+22     	; 0x11ba <TIMER_Deinit+0x4a>
	{
	case TIMER0_ID:
		TCCR0 = 0;
    11a4:	e3 e5       	ldi	r30, 0x53	; 83
    11a6:	f0 e0       	ldi	r31, 0x00	; 0
    11a8:	10 82       	st	Z, r1
    11aa:	07 c0       	rjmp	.+14     	; 0x11ba <TIMER_Deinit+0x4a>
		break;
	case TIMER1_ID:
		TCCR1B = 0;
    11ac:	ee e4       	ldi	r30, 0x4E	; 78
    11ae:	f0 e0       	ldi	r31, 0x00	; 0
    11b0:	10 82       	st	Z, r1
    11b2:	03 c0       	rjmp	.+6      	; 0x11ba <TIMER_Deinit+0x4a>
		break;
	case TIMER2_ID:
		TCCR2 = 0;
    11b4:	e5 e4       	ldi	r30, 0x45	; 69
    11b6:	f0 e0       	ldi	r31, 0x00	; 0
    11b8:	10 82       	st	Z, r1
		break;
	}
}
    11ba:	0f 90       	pop	r0
    11bc:	0f 90       	pop	r0
    11be:	0f 90       	pop	r0
    11c0:	cf 91       	pop	r28
    11c2:	df 91       	pop	r29
    11c4:	08 95       	ret

000011c6 <__vector_9>:
/*
 * Description:
 * Calls the call back function of timer 0 in case of Overflow interrupt occurs.
 */
ISR( TIMER0_OVF_vect )
{
    11c6:	1f 92       	push	r1
    11c8:	0f 92       	push	r0
    11ca:	0f b6       	in	r0, 0x3f	; 63
    11cc:	0f 92       	push	r0
    11ce:	11 24       	eor	r1, r1
    11d0:	2f 93       	push	r18
    11d2:	3f 93       	push	r19
    11d4:	4f 93       	push	r20
    11d6:	5f 93       	push	r21
    11d8:	6f 93       	push	r22
    11da:	7f 93       	push	r23
    11dc:	8f 93       	push	r24
    11de:	9f 93       	push	r25
    11e0:	af 93       	push	r26
    11e2:	bf 93       	push	r27
    11e4:	ef 93       	push	r30
    11e6:	ff 93       	push	r31
    11e8:	df 93       	push	r29
    11ea:	cf 93       	push	r28
    11ec:	cd b7       	in	r28, 0x3d	; 61
    11ee:	de b7       	in	r29, 0x3e	; 62
	if(g_timer0CallBackPtr != NULL_PTR)
    11f0:	80 91 76 00 	lds	r24, 0x0076
    11f4:	90 91 77 00 	lds	r25, 0x0077
    11f8:	00 97       	sbiw	r24, 0x00	; 0
    11fa:	29 f0       	breq	.+10     	; 0x1206 <__vector_9+0x40>
	{
		(*g_timer0CallBackPtr)();
    11fc:	e0 91 76 00 	lds	r30, 0x0076
    1200:	f0 91 77 00 	lds	r31, 0x0077
    1204:	09 95       	icall
	}
	TIFR |= TOV0;
    1206:	e8 e5       	ldi	r30, 0x58	; 88
    1208:	f0 e0       	ldi	r31, 0x00	; 0
    120a:	a8 e5       	ldi	r26, 0x58	; 88
    120c:	b0 e0       	ldi	r27, 0x00	; 0
    120e:	8c 91       	ld	r24, X
    1210:	80 83       	st	Z, r24
}
    1212:	cf 91       	pop	r28
    1214:	df 91       	pop	r29
    1216:	ff 91       	pop	r31
    1218:	ef 91       	pop	r30
    121a:	bf 91       	pop	r27
    121c:	af 91       	pop	r26
    121e:	9f 91       	pop	r25
    1220:	8f 91       	pop	r24
    1222:	7f 91       	pop	r23
    1224:	6f 91       	pop	r22
    1226:	5f 91       	pop	r21
    1228:	4f 91       	pop	r20
    122a:	3f 91       	pop	r19
    122c:	2f 91       	pop	r18
    122e:	0f 90       	pop	r0
    1230:	0f be       	out	0x3f, r0	; 63
    1232:	0f 90       	pop	r0
    1234:	1f 90       	pop	r1
    1236:	18 95       	reti

00001238 <__vector_19>:
/*
 * Description:
 * Calls the call back function of timer 0 in case of compare match interrupt occurs.
 */
ISR( TIMER0_COMP_vect )
{
    1238:	1f 92       	push	r1
    123a:	0f 92       	push	r0
    123c:	0f b6       	in	r0, 0x3f	; 63
    123e:	0f 92       	push	r0
    1240:	11 24       	eor	r1, r1
    1242:	2f 93       	push	r18
    1244:	3f 93       	push	r19
    1246:	4f 93       	push	r20
    1248:	5f 93       	push	r21
    124a:	6f 93       	push	r22
    124c:	7f 93       	push	r23
    124e:	8f 93       	push	r24
    1250:	9f 93       	push	r25
    1252:	af 93       	push	r26
    1254:	bf 93       	push	r27
    1256:	ef 93       	push	r30
    1258:	ff 93       	push	r31
    125a:	df 93       	push	r29
    125c:	cf 93       	push	r28
    125e:	cd b7       	in	r28, 0x3d	; 61
    1260:	de b7       	in	r29, 0x3e	; 62
	if(g_timer0CallBackPtr != NULL_PTR)
    1262:	80 91 76 00 	lds	r24, 0x0076
    1266:	90 91 77 00 	lds	r25, 0x0077
    126a:	00 97       	sbiw	r24, 0x00	; 0
    126c:	29 f0       	breq	.+10     	; 0x1278 <__vector_19+0x40>
	{
		(*g_timer0CallBackPtr)();
    126e:	e0 91 76 00 	lds	r30, 0x0076
    1272:	f0 91 77 00 	lds	r31, 0x0077
    1276:	09 95       	icall
	}
	TIFR |= OCF0;
    1278:	a8 e5       	ldi	r26, 0x58	; 88
    127a:	b0 e0       	ldi	r27, 0x00	; 0
    127c:	e8 e5       	ldi	r30, 0x58	; 88
    127e:	f0 e0       	ldi	r31, 0x00	; 0
    1280:	80 81       	ld	r24, Z
    1282:	81 60       	ori	r24, 0x01	; 1
    1284:	8c 93       	st	X, r24
}
    1286:	cf 91       	pop	r28
    1288:	df 91       	pop	r29
    128a:	ff 91       	pop	r31
    128c:	ef 91       	pop	r30
    128e:	bf 91       	pop	r27
    1290:	af 91       	pop	r26
    1292:	9f 91       	pop	r25
    1294:	8f 91       	pop	r24
    1296:	7f 91       	pop	r23
    1298:	6f 91       	pop	r22
    129a:	5f 91       	pop	r21
    129c:	4f 91       	pop	r20
    129e:	3f 91       	pop	r19
    12a0:	2f 91       	pop	r18
    12a2:	0f 90       	pop	r0
    12a4:	0f be       	out	0x3f, r0	; 63
    12a6:	0f 90       	pop	r0
    12a8:	1f 90       	pop	r1
    12aa:	18 95       	reti

000012ac <__vector_8>:
/*
 * Description:
 * Calls the call back function of timer 1 in case of Overflow interrupt occurs.
 */
ISR( TIMER1_OVF_vect )
{
    12ac:	1f 92       	push	r1
    12ae:	0f 92       	push	r0
    12b0:	0f b6       	in	r0, 0x3f	; 63
    12b2:	0f 92       	push	r0
    12b4:	11 24       	eor	r1, r1
    12b6:	2f 93       	push	r18
    12b8:	3f 93       	push	r19
    12ba:	4f 93       	push	r20
    12bc:	5f 93       	push	r21
    12be:	6f 93       	push	r22
    12c0:	7f 93       	push	r23
    12c2:	8f 93       	push	r24
    12c4:	9f 93       	push	r25
    12c6:	af 93       	push	r26
    12c8:	bf 93       	push	r27
    12ca:	ef 93       	push	r30
    12cc:	ff 93       	push	r31
    12ce:	df 93       	push	r29
    12d0:	cf 93       	push	r28
    12d2:	cd b7       	in	r28, 0x3d	; 61
    12d4:	de b7       	in	r29, 0x3e	; 62
	if(g_timer1CallBackPtr != NULL_PTR)
    12d6:	80 91 78 00 	lds	r24, 0x0078
    12da:	90 91 79 00 	lds	r25, 0x0079
    12de:	00 97       	sbiw	r24, 0x00	; 0
    12e0:	29 f0       	breq	.+10     	; 0x12ec <__vector_8+0x40>
	{
		(*g_timer1CallBackPtr)();
    12e2:	e0 91 78 00 	lds	r30, 0x0078
    12e6:	f0 91 79 00 	lds	r31, 0x0079
    12ea:	09 95       	icall
	}
	TIFR |= TOV1;
    12ec:	a8 e5       	ldi	r26, 0x58	; 88
    12ee:	b0 e0       	ldi	r27, 0x00	; 0
    12f0:	e8 e5       	ldi	r30, 0x58	; 88
    12f2:	f0 e0       	ldi	r31, 0x00	; 0
    12f4:	80 81       	ld	r24, Z
    12f6:	82 60       	ori	r24, 0x02	; 2
    12f8:	8c 93       	st	X, r24
}
    12fa:	cf 91       	pop	r28
    12fc:	df 91       	pop	r29
    12fe:	ff 91       	pop	r31
    1300:	ef 91       	pop	r30
    1302:	bf 91       	pop	r27
    1304:	af 91       	pop	r26
    1306:	9f 91       	pop	r25
    1308:	8f 91       	pop	r24
    130a:	7f 91       	pop	r23
    130c:	6f 91       	pop	r22
    130e:	5f 91       	pop	r21
    1310:	4f 91       	pop	r20
    1312:	3f 91       	pop	r19
    1314:	2f 91       	pop	r18
    1316:	0f 90       	pop	r0
    1318:	0f be       	out	0x3f, r0	; 63
    131a:	0f 90       	pop	r0
    131c:	1f 90       	pop	r1
    131e:	18 95       	reti

00001320 <__vector_6>:
/*
 * Description:
 * Calls the call back function of timer 1 in case of compare match interrupt occurs.
 */
ISR( TIMER1_COMPA_vect )
{
    1320:	1f 92       	push	r1
    1322:	0f 92       	push	r0
    1324:	0f b6       	in	r0, 0x3f	; 63
    1326:	0f 92       	push	r0
    1328:	11 24       	eor	r1, r1
    132a:	2f 93       	push	r18
    132c:	3f 93       	push	r19
    132e:	4f 93       	push	r20
    1330:	5f 93       	push	r21
    1332:	6f 93       	push	r22
    1334:	7f 93       	push	r23
    1336:	8f 93       	push	r24
    1338:	9f 93       	push	r25
    133a:	af 93       	push	r26
    133c:	bf 93       	push	r27
    133e:	ef 93       	push	r30
    1340:	ff 93       	push	r31
    1342:	df 93       	push	r29
    1344:	cf 93       	push	r28
    1346:	cd b7       	in	r28, 0x3d	; 61
    1348:	de b7       	in	r29, 0x3e	; 62
	if(g_timer1CallBackPtr != NULL_PTR)
    134a:	80 91 78 00 	lds	r24, 0x0078
    134e:	90 91 79 00 	lds	r25, 0x0079
    1352:	00 97       	sbiw	r24, 0x00	; 0
    1354:	29 f0       	breq	.+10     	; 0x1360 <__vector_6+0x40>
	{
		(*g_timer1CallBackPtr)();
    1356:	e0 91 78 00 	lds	r30, 0x0078
    135a:	f0 91 79 00 	lds	r31, 0x0079
    135e:	09 95       	icall
	}
	TIFR |= OCF1A;
    1360:	a8 e5       	ldi	r26, 0x58	; 88
    1362:	b0 e0       	ldi	r27, 0x00	; 0
    1364:	e8 e5       	ldi	r30, 0x58	; 88
    1366:	f0 e0       	ldi	r31, 0x00	; 0
    1368:	80 81       	ld	r24, Z
    136a:	84 60       	ori	r24, 0x04	; 4
    136c:	8c 93       	st	X, r24
}
    136e:	cf 91       	pop	r28
    1370:	df 91       	pop	r29
    1372:	ff 91       	pop	r31
    1374:	ef 91       	pop	r30
    1376:	bf 91       	pop	r27
    1378:	af 91       	pop	r26
    137a:	9f 91       	pop	r25
    137c:	8f 91       	pop	r24
    137e:	7f 91       	pop	r23
    1380:	6f 91       	pop	r22
    1382:	5f 91       	pop	r21
    1384:	4f 91       	pop	r20
    1386:	3f 91       	pop	r19
    1388:	2f 91       	pop	r18
    138a:	0f 90       	pop	r0
    138c:	0f be       	out	0x3f, r0	; 63
    138e:	0f 90       	pop	r0
    1390:	1f 90       	pop	r1
    1392:	18 95       	reti

00001394 <__vector_4>:
/*
 * Description:
 * Calls the call back function of timer 2 in case of Overflow interrupt occurs.
 */
ISR( TIMER2_OVF_vect )
{
    1394:	1f 92       	push	r1
    1396:	0f 92       	push	r0
    1398:	0f b6       	in	r0, 0x3f	; 63
    139a:	0f 92       	push	r0
    139c:	11 24       	eor	r1, r1
    139e:	2f 93       	push	r18
    13a0:	3f 93       	push	r19
    13a2:	4f 93       	push	r20
    13a4:	5f 93       	push	r21
    13a6:	6f 93       	push	r22
    13a8:	7f 93       	push	r23
    13aa:	8f 93       	push	r24
    13ac:	9f 93       	push	r25
    13ae:	af 93       	push	r26
    13b0:	bf 93       	push	r27
    13b2:	ef 93       	push	r30
    13b4:	ff 93       	push	r31
    13b6:	df 93       	push	r29
    13b8:	cf 93       	push	r28
    13ba:	cd b7       	in	r28, 0x3d	; 61
    13bc:	de b7       	in	r29, 0x3e	; 62
	if(g_timer2CallBackPtr != NULL_PTR)
    13be:	80 91 7a 00 	lds	r24, 0x007A
    13c2:	90 91 7b 00 	lds	r25, 0x007B
    13c6:	00 97       	sbiw	r24, 0x00	; 0
    13c8:	29 f0       	breq	.+10     	; 0x13d4 <__vector_4+0x40>
	{
		(*g_timer2CallBackPtr)();
    13ca:	e0 91 7a 00 	lds	r30, 0x007A
    13ce:	f0 91 7b 00 	lds	r31, 0x007B
    13d2:	09 95       	icall
	}
	TIFR |= TOV2;
    13d4:	a8 e5       	ldi	r26, 0x58	; 88
    13d6:	b0 e0       	ldi	r27, 0x00	; 0
    13d8:	e8 e5       	ldi	r30, 0x58	; 88
    13da:	f0 e0       	ldi	r31, 0x00	; 0
    13dc:	80 81       	ld	r24, Z
    13de:	86 60       	ori	r24, 0x06	; 6
    13e0:	8c 93       	st	X, r24
}
    13e2:	cf 91       	pop	r28
    13e4:	df 91       	pop	r29
    13e6:	ff 91       	pop	r31
    13e8:	ef 91       	pop	r30
    13ea:	bf 91       	pop	r27
    13ec:	af 91       	pop	r26
    13ee:	9f 91       	pop	r25
    13f0:	8f 91       	pop	r24
    13f2:	7f 91       	pop	r23
    13f4:	6f 91       	pop	r22
    13f6:	5f 91       	pop	r21
    13f8:	4f 91       	pop	r20
    13fa:	3f 91       	pop	r19
    13fc:	2f 91       	pop	r18
    13fe:	0f 90       	pop	r0
    1400:	0f be       	out	0x3f, r0	; 63
    1402:	0f 90       	pop	r0
    1404:	1f 90       	pop	r1
    1406:	18 95       	reti

00001408 <__vector_3>:
/*
 * Description:
 * Calls the call back function of timer 2 in case of compare match interrupt occurs.
 */
ISR( TIMER2_COMP_vect )
{
    1408:	1f 92       	push	r1
    140a:	0f 92       	push	r0
    140c:	0f b6       	in	r0, 0x3f	; 63
    140e:	0f 92       	push	r0
    1410:	11 24       	eor	r1, r1
    1412:	2f 93       	push	r18
    1414:	3f 93       	push	r19
    1416:	4f 93       	push	r20
    1418:	5f 93       	push	r21
    141a:	6f 93       	push	r22
    141c:	7f 93       	push	r23
    141e:	8f 93       	push	r24
    1420:	9f 93       	push	r25
    1422:	af 93       	push	r26
    1424:	bf 93       	push	r27
    1426:	ef 93       	push	r30
    1428:	ff 93       	push	r31
    142a:	df 93       	push	r29
    142c:	cf 93       	push	r28
    142e:	cd b7       	in	r28, 0x3d	; 61
    1430:	de b7       	in	r29, 0x3e	; 62
	if(g_timer2CallBackPtr != NULL_PTR)
    1432:	80 91 7a 00 	lds	r24, 0x007A
    1436:	90 91 7b 00 	lds	r25, 0x007B
    143a:	00 97       	sbiw	r24, 0x00	; 0
    143c:	29 f0       	breq	.+10     	; 0x1448 <__vector_3+0x40>
	{
		(*g_timer2CallBackPtr)();
    143e:	e0 91 7a 00 	lds	r30, 0x007A
    1442:	f0 91 7b 00 	lds	r31, 0x007B
    1446:	09 95       	icall
	}
	TIFR |= OCF2;
    1448:	a8 e5       	ldi	r26, 0x58	; 88
    144a:	b0 e0       	ldi	r27, 0x00	; 0
    144c:	e8 e5       	ldi	r30, 0x58	; 88
    144e:	f0 e0       	ldi	r31, 0x00	; 0
    1450:	80 81       	ld	r24, Z
    1452:	87 60       	ori	r24, 0x07	; 7
    1454:	8c 93       	st	X, r24
}
    1456:	cf 91       	pop	r28
    1458:	df 91       	pop	r29
    145a:	ff 91       	pop	r31
    145c:	ef 91       	pop	r30
    145e:	bf 91       	pop	r27
    1460:	af 91       	pop	r26
    1462:	9f 91       	pop	r25
    1464:	8f 91       	pop	r24
    1466:	7f 91       	pop	r23
    1468:	6f 91       	pop	r22
    146a:	5f 91       	pop	r21
    146c:	4f 91       	pop	r20
    146e:	3f 91       	pop	r19
    1470:	2f 91       	pop	r18
    1472:	0f 90       	pop	r0
    1474:	0f be       	out	0x3f, r0	; 63
    1476:	0f 90       	pop	r0
    1478:	1f 90       	pop	r1
    147a:	18 95       	reti

0000147c <TWI_init>:

#include "common_macros.h"
#include <avr/io.h>

void TWI_init( TWI_ConfigType* config )
{
    147c:	0f 93       	push	r16
    147e:	1f 93       	push	r17
    1480:	df 93       	push	r29
    1482:	cf 93       	push	r28
    1484:	00 d0       	rcall	.+0      	; 0x1486 <TWI_init+0xa>
    1486:	cd b7       	in	r28, 0x3d	; 61
    1488:	de b7       	in	r29, 0x3e	; 62
    148a:	9a 83       	std	Y+2, r25	; 0x02
    148c:	89 83       	std	Y+1, r24	; 0x01
	 * F_SCL = (F_CPU)/(16 + 2 * (TWBR) * 4 ^ (TWPS))
	 * TWPS  =00
	 * F_SCL = F_CPU / (16 + 2 * TWBR)
	 * TWBR = (F_CPU/F_SCL-16)/(2)
	 */
	TWBR = (F_CPU / config->bitRate - 16)/(2);
    148e:	00 e2       	ldi	r16, 0x20	; 32
    1490:	10 e0       	ldi	r17, 0x00	; 0
    1492:	e9 81       	ldd	r30, Y+1	; 0x01
    1494:	fa 81       	ldd	r31, Y+2	; 0x02
    1496:	20 81       	ld	r18, Z
    1498:	31 81       	ldd	r19, Z+1	; 0x01
    149a:	42 81       	ldd	r20, Z+2	; 0x02
    149c:	53 81       	ldd	r21, Z+3	; 0x03
    149e:	80 e4       	ldi	r24, 0x40	; 64
    14a0:	92 e4       	ldi	r25, 0x42	; 66
    14a2:	af e0       	ldi	r26, 0x0F	; 15
    14a4:	b0 e0       	ldi	r27, 0x00	; 0
    14a6:	bc 01       	movw	r22, r24
    14a8:	cd 01       	movw	r24, r26
    14aa:	0e 94 0c 0c 	call	0x1818	; 0x1818 <__udivmodsi4>
    14ae:	da 01       	movw	r26, r20
    14b0:	c9 01       	movw	r24, r18
    14b2:	40 97       	sbiw	r24, 0x10	; 16
    14b4:	a1 09       	sbc	r26, r1
    14b6:	b1 09       	sbc	r27, r1
    14b8:	b6 95       	lsr	r27
    14ba:	a7 95       	ror	r26
    14bc:	97 95       	ror	r25
    14be:	87 95       	ror	r24
    14c0:	f8 01       	movw	r30, r16
    14c2:	80 83       	st	Z, r24
	TWSR = 0x00;
    14c4:	e1 e2       	ldi	r30, 0x21	; 33
    14c6:	f0 e0       	ldi	r31, 0x00	; 0
    14c8:	10 82       	st	Z, r1
	
    /* Two Wire Bus address my address if any master device want to call me: (used in case this MC is a slave device)
       General Call Recognition: Off */
    TWAR = (config->address) << 1;
    14ca:	a2 e2       	ldi	r26, 0x22	; 34
    14cc:	b0 e0       	ldi	r27, 0x00	; 0
    14ce:	e9 81       	ldd	r30, Y+1	; 0x01
    14d0:	fa 81       	ldd	r31, Y+2	; 0x02
    14d2:	84 81       	ldd	r24, Z+4	; 0x04
    14d4:	88 0f       	add	r24, r24
    14d6:	8c 93       	st	X, r24
	
    TWCR = (1<<TWEN); /* enable TWI */
    14d8:	e6 e5       	ldi	r30, 0x56	; 86
    14da:	f0 e0       	ldi	r31, 0x00	; 0
    14dc:	84 e0       	ldi	r24, 0x04	; 4
    14de:	80 83       	st	Z, r24
}
    14e0:	0f 90       	pop	r0
    14e2:	0f 90       	pop	r0
    14e4:	cf 91       	pop	r28
    14e6:	df 91       	pop	r29
    14e8:	1f 91       	pop	r17
    14ea:	0f 91       	pop	r16
    14ec:	08 95       	ret

000014ee <TWI_start>:

void TWI_start(void)
{
    14ee:	df 93       	push	r29
    14f0:	cf 93       	push	r28
    14f2:	cd b7       	in	r28, 0x3d	; 61
    14f4:	de b7       	in	r29, 0x3e	; 62
    /* 
	 * Clear the TWINT flag before sending the start bit TWINT=1
	 * send the start bit by TWSTA=1
	 * Enable TWI Module TWEN=1 
	 */
    TWCR = (1 << TWINT) | (1 << TWSTA) | (1 << TWEN);
    14f6:	e6 e5       	ldi	r30, 0x56	; 86
    14f8:	f0 e0       	ldi	r31, 0x00	; 0
    14fa:	84 ea       	ldi	r24, 0xA4	; 164
    14fc:	80 83       	st	Z, r24
    
    /* Wait for TWINT flag set in TWCR Register (start bit is send successfully) */
    while(BIT_IS_CLEAR(TWCR,TWINT));
    14fe:	e6 e5       	ldi	r30, 0x56	; 86
    1500:	f0 e0       	ldi	r31, 0x00	; 0
    1502:	80 81       	ld	r24, Z
    1504:	88 23       	and	r24, r24
    1506:	dc f7       	brge	.-10     	; 0x14fe <TWI_start+0x10>
}
    1508:	cf 91       	pop	r28
    150a:	df 91       	pop	r29
    150c:	08 95       	ret

0000150e <TWI_stop>:

void TWI_stop(void)
{
    150e:	df 93       	push	r29
    1510:	cf 93       	push	r28
    1512:	cd b7       	in	r28, 0x3d	; 61
    1514:	de b7       	in	r29, 0x3e	; 62
    /* 
	 * Clear the TWINT flag before sending the stop bit TWINT=1
	 * send the stop bit by TWSTO=1
	 * Enable TWI Module TWEN=1 
	 */
    TWCR = (1 << TWINT) | (1 << TWSTO) | (1 << TWEN);
    1516:	e6 e5       	ldi	r30, 0x56	; 86
    1518:	f0 e0       	ldi	r31, 0x00	; 0
    151a:	84 e9       	ldi	r24, 0x94	; 148
    151c:	80 83       	st	Z, r24
}
    151e:	cf 91       	pop	r28
    1520:	df 91       	pop	r29
    1522:	08 95       	ret

00001524 <TWI_writeByte>:

void TWI_writeByte(uint8 data)
{
    1524:	df 93       	push	r29
    1526:	cf 93       	push	r28
    1528:	0f 92       	push	r0
    152a:	cd b7       	in	r28, 0x3d	; 61
    152c:	de b7       	in	r29, 0x3e	; 62
    152e:	89 83       	std	Y+1, r24	; 0x01
    /* Put data On TWI data Register */
    TWDR = data;
    1530:	e3 e2       	ldi	r30, 0x23	; 35
    1532:	f0 e0       	ldi	r31, 0x00	; 0
    1534:	89 81       	ldd	r24, Y+1	; 0x01
    1536:	80 83       	st	Z, r24
    /* 
	 * Clear the TWINT flag before sending the data TWINT=1
	 * Enable TWI Module TWEN=1 
	 */ 
    TWCR = (1 << TWINT) | (1 << TWEN);
    1538:	e6 e5       	ldi	r30, 0x56	; 86
    153a:	f0 e0       	ldi	r31, 0x00	; 0
    153c:	84 e8       	ldi	r24, 0x84	; 132
    153e:	80 83       	st	Z, r24
    /* Wait for TWINT flag set in TWCR Register(data is send successfully) */
    while(BIT_IS_CLEAR(TWCR,TWINT));
    1540:	e6 e5       	ldi	r30, 0x56	; 86
    1542:	f0 e0       	ldi	r31, 0x00	; 0
    1544:	80 81       	ld	r24, Z
    1546:	88 23       	and	r24, r24
    1548:	dc f7       	brge	.-10     	; 0x1540 <TWI_writeByte+0x1c>
}
    154a:	0f 90       	pop	r0
    154c:	cf 91       	pop	r28
    154e:	df 91       	pop	r29
    1550:	08 95       	ret

00001552 <TWI_readByteWithACK>:

uint8 TWI_readByteWithACK(void)
{
    1552:	df 93       	push	r29
    1554:	cf 93       	push	r28
    1556:	cd b7       	in	r28, 0x3d	; 61
    1558:	de b7       	in	r29, 0x3e	; 62
	/* 
	 * Clear the TWINT flag before reading the data TWINT=1
	 * Enable sending ACK after reading or receiving data TWEA=1
	 * Enable TWI Module TWEN=1 
	 */ 
    TWCR = (1 << TWINT) | (1 << TWEN) | (1 << TWEA);
    155a:	e6 e5       	ldi	r30, 0x56	; 86
    155c:	f0 e0       	ldi	r31, 0x00	; 0
    155e:	84 ec       	ldi	r24, 0xC4	; 196
    1560:	80 83       	st	Z, r24
    /* Wait for TWINT flag set in TWCR Register (data received successfully) */
    while(BIT_IS_CLEAR(TWCR,TWINT));
    1562:	e6 e5       	ldi	r30, 0x56	; 86
    1564:	f0 e0       	ldi	r31, 0x00	; 0
    1566:	80 81       	ld	r24, Z
    1568:	88 23       	and	r24, r24
    156a:	dc f7       	brge	.-10     	; 0x1562 <TWI_readByteWithACK+0x10>
    /* Read Data */
    return TWDR;
    156c:	e3 e2       	ldi	r30, 0x23	; 35
    156e:	f0 e0       	ldi	r31, 0x00	; 0
    1570:	80 81       	ld	r24, Z
}
    1572:	cf 91       	pop	r28
    1574:	df 91       	pop	r29
    1576:	08 95       	ret

00001578 <TWI_readByteWithNACK>:

uint8 TWI_readByteWithNACK(void)
{
    1578:	df 93       	push	r29
    157a:	cf 93       	push	r28
    157c:	cd b7       	in	r28, 0x3d	; 61
    157e:	de b7       	in	r29, 0x3e	; 62
	/* 
	 * Clear the TWINT flag before reading the data TWINT=1
	 * Enable TWI Module TWEN=1 
	 */
    TWCR = (1 << TWINT) | (1 << TWEN);
    1580:	e6 e5       	ldi	r30, 0x56	; 86
    1582:	f0 e0       	ldi	r31, 0x00	; 0
    1584:	84 e8       	ldi	r24, 0x84	; 132
    1586:	80 83       	st	Z, r24
    /* Wait for TWINT flag set in TWCR Register (data received successfully) */
    while(BIT_IS_CLEAR(TWCR,TWINT));
    1588:	e6 e5       	ldi	r30, 0x56	; 86
    158a:	f0 e0       	ldi	r31, 0x00	; 0
    158c:	80 81       	ld	r24, Z
    158e:	88 23       	and	r24, r24
    1590:	dc f7       	brge	.-10     	; 0x1588 <TWI_readByteWithNACK+0x10>
    /* Read Data */
    return TWDR;
    1592:	e3 e2       	ldi	r30, 0x23	; 35
    1594:	f0 e0       	ldi	r31, 0x00	; 0
    1596:	80 81       	ld	r24, Z
}
    1598:	cf 91       	pop	r28
    159a:	df 91       	pop	r29
    159c:	08 95       	ret

0000159e <TWI_getStatus>:

uint8 TWI_getStatus(void)
{
    159e:	df 93       	push	r29
    15a0:	cf 93       	push	r28
    15a2:	0f 92       	push	r0
    15a4:	cd b7       	in	r28, 0x3d	; 61
    15a6:	de b7       	in	r29, 0x3e	; 62
    uint8 status;
    /* masking to eliminate first 3 bits and get the last 5 bits (status bits) */
    status = TWSR & 0xF8;
    15a8:	e1 e2       	ldi	r30, 0x21	; 33
    15aa:	f0 e0       	ldi	r31, 0x00	; 0
    15ac:	80 81       	ld	r24, Z
    15ae:	88 7f       	andi	r24, 0xF8	; 248
    15b0:	89 83       	std	Y+1, r24	; 0x01
    return status;
    15b2:	89 81       	ldd	r24, Y+1	; 0x01
}
    15b4:	0f 90       	pop	r0
    15b6:	cf 91       	pop	r28
    15b8:	df 91       	pop	r29
    15ba:	08 95       	ret

000015bc <UART_init>:
 * 1. Setup the Frame format like number of data bits, parity bit type and number of stop bits.
 * 2. Enable the UART.
 * 3. Setup the UART baud rate.
 */
void UART_init( UART_ConfigType* config )
{
    15bc:	df 93       	push	r29
    15be:	cf 93       	push	r28
    15c0:	00 d0       	rcall	.+0      	; 0x15c2 <UART_init+0x6>
    15c2:	00 d0       	rcall	.+0      	; 0x15c4 <UART_init+0x8>
    15c4:	00 d0       	rcall	.+0      	; 0x15c6 <UART_init+0xa>
    15c6:	cd b7       	in	r28, 0x3d	; 61
    15c8:	de b7       	in	r29, 0x3e	; 62
    15ca:	9c 83       	std	Y+4, r25	; 0x04
    15cc:	8b 83       	std	Y+3, r24	; 0x03
	uint16 ubrr_value = 0;
    15ce:	1a 82       	std	Y+2, r1	; 0x02
    15d0:	19 82       	std	Y+1, r1	; 0x01

	/* U2X = 1 for double transmission speed */
	UCSRA = (1<<U2X);
    15d2:	eb e2       	ldi	r30, 0x2B	; 43
    15d4:	f0 e0       	ldi	r31, 0x00	; 0
    15d6:	82 e0       	ldi	r24, 0x02	; 2
    15d8:	80 83       	st	Z, r24
	 * RXEN  = 1 Receiver Enable
	 * RXEN  = 1 Transmitter Enable
	 * UCSZ2 = 0 initially and i will change it later while i select the data bits.
	 * RXB8 & TXB8 not used for 8-bit data mode /////////
	 ***********************************************************************/ 
	UCSRB = (1<<RXEN) | (1<<TXEN);
    15da:	ea e2       	ldi	r30, 0x2A	; 42
    15dc:	f0 e0       	ldi	r31, 0x00	; 0
    15de:	88 e1       	ldi	r24, 0x18	; 24
    15e0:	80 83       	st	Z, r24
	 * USBS    = inserted according to configurations
	 * UCSZ1:0 = 11 For 8-bit data mode /////////////////////
	 * UCPOL   = 0 Used with the Synchronous operation only
	 ***********************************************************************/ 	
	/* Insert the value of parity type in bits 5:4, and number of stop bits according to configurations.*/
	UCSRC = (1<<URSEL) | ((UCSRC&~(0x30))|((config->parity)<<4)) | ((config->stopBits)<<USBS);
    15e2:	a0 e4       	ldi	r26, 0x40	; 64
    15e4:	b0 e0       	ldi	r27, 0x00	; 0
    15e6:	e0 e4       	ldi	r30, 0x40	; 64
    15e8:	f0 e0       	ldi	r31, 0x00	; 0
    15ea:	80 81       	ld	r24, Z
    15ec:	28 2f       	mov	r18, r24
    15ee:	2f 7c       	andi	r18, 0xCF	; 207
    15f0:	eb 81       	ldd	r30, Y+3	; 0x03
    15f2:	fc 81       	ldd	r31, Y+4	; 0x04
    15f4:	83 81       	ldd	r24, Z+3	; 0x03
    15f6:	88 2f       	mov	r24, r24
    15f8:	90 e0       	ldi	r25, 0x00	; 0
    15fa:	82 95       	swap	r24
    15fc:	92 95       	swap	r25
    15fe:	90 7f       	andi	r25, 0xF0	; 240
    1600:	98 27       	eor	r25, r24
    1602:	80 7f       	andi	r24, 0xF0	; 240
    1604:	98 27       	eor	r25, r24
    1606:	82 2b       	or	r24, r18
    1608:	28 2f       	mov	r18, r24
    160a:	20 68       	ori	r18, 0x80	; 128
    160c:	eb 81       	ldd	r30, Y+3	; 0x03
    160e:	fc 81       	ldd	r31, Y+4	; 0x04
    1610:	84 81       	ldd	r24, Z+4	; 0x04
    1612:	88 2f       	mov	r24, r24
    1614:	90 e0       	ldi	r25, 0x00	; 0
    1616:	88 0f       	add	r24, r24
    1618:	99 1f       	adc	r25, r25
    161a:	88 0f       	add	r24, r24
    161c:	99 1f       	adc	r25, r25
    161e:	88 0f       	add	r24, r24
    1620:	99 1f       	adc	r25, r25
    1622:	82 2b       	or	r24, r18
    1624:	8c 93       	st	X, r24

	/* Configure registers according to required data bits*/
	switch(config->dataLength)
    1626:	eb 81       	ldd	r30, Y+3	; 0x03
    1628:	fc 81       	ldd	r31, Y+4	; 0x04
    162a:	82 81       	ldd	r24, Z+2	; 0x02
    162c:	28 2f       	mov	r18, r24
    162e:	30 e0       	ldi	r19, 0x00	; 0
    1630:	3e 83       	std	Y+6, r19	; 0x06
    1632:	2d 83       	std	Y+5, r18	; 0x05
    1634:	8d 81       	ldd	r24, Y+5	; 0x05
    1636:	9e 81       	ldd	r25, Y+6	; 0x06
    1638:	99 23       	and	r25, r25
    163a:	34 f1       	brlt	.+76     	; 0x1688 <UART_init+0xcc>
    163c:	2d 81       	ldd	r18, Y+5	; 0x05
    163e:	3e 81       	ldd	r19, Y+6	; 0x06
    1640:	24 30       	cpi	r18, 0x04	; 4
    1642:	31 05       	cpc	r19, r1
    1644:	34 f0       	brlt	.+12     	; 0x1652 <UART_init+0x96>
    1646:	8d 81       	ldd	r24, Y+5	; 0x05
    1648:	9e 81       	ldd	r25, Y+6	; 0x06
    164a:	84 30       	cpi	r24, 0x04	; 4
    164c:	91 05       	cpc	r25, r1
    164e:	71 f0       	breq	.+28     	; 0x166c <UART_init+0xb0>
    1650:	1b c0       	rjmp	.+54     	; 0x1688 <UART_init+0xcc>
	case BITS_5:
	case BITS_6:
	case BITS_7:
	case BITS_8:
		/* Keep UCSZ2 at UCSRB register 0 as it is and insert number of bits on UCSRC register at first 2 bits.*/
		UCSRC = (UCSRC&~(0x03))|(config->dataLength);
    1652:	a0 e4       	ldi	r26, 0x40	; 64
    1654:	b0 e0       	ldi	r27, 0x00	; 0
    1656:	e0 e4       	ldi	r30, 0x40	; 64
    1658:	f0 e0       	ldi	r31, 0x00	; 0
    165a:	80 81       	ld	r24, Z
    165c:	98 2f       	mov	r25, r24
    165e:	9c 7f       	andi	r25, 0xFC	; 252
    1660:	eb 81       	ldd	r30, Y+3	; 0x03
    1662:	fc 81       	ldd	r31, Y+4	; 0x04
    1664:	82 81       	ldd	r24, Z+2	; 0x02
    1666:	89 2b       	or	r24, r25
    1668:	8c 93       	st	X, r24
    166a:	0e c0       	rjmp	.+28     	; 0x1688 <UART_init+0xcc>
		break;
	case BITS_9:
		/* Set UCSZ2 at UCSRB register to 1 and insert 0b11 at first 2 bits.*/
		UCSRB |= (1<<UCSZ2);
    166c:	aa e2       	ldi	r26, 0x2A	; 42
    166e:	b0 e0       	ldi	r27, 0x00	; 0
    1670:	ea e2       	ldi	r30, 0x2A	; 42
    1672:	f0 e0       	ldi	r31, 0x00	; 0
    1674:	80 81       	ld	r24, Z
    1676:	84 60       	ori	r24, 0x04	; 4
    1678:	8c 93       	st	X, r24
		UCSRC |= 0x03;
    167a:	a0 e4       	ldi	r26, 0x40	; 64
    167c:	b0 e0       	ldi	r27, 0x00	; 0
    167e:	e0 e4       	ldi	r30, 0x40	; 64
    1680:	f0 e0       	ldi	r31, 0x00	; 0
    1682:	80 81       	ld	r24, Z
    1684:	83 60       	ori	r24, 0x03	; 3
    1686:	8c 93       	st	X, r24
		break;
	}
	
	/* Calculate the UBRR register value */
	ubrr_value = (uint16)(((F_CPU / (config->bitRate * 8UL))) - 1);
    1688:	eb 81       	ldd	r30, Y+3	; 0x03
    168a:	fc 81       	ldd	r31, Y+4	; 0x04
    168c:	80 81       	ld	r24, Z
    168e:	91 81       	ldd	r25, Z+1	; 0x01
    1690:	cc 01       	movw	r24, r24
    1692:	a0 e0       	ldi	r26, 0x00	; 0
    1694:	b0 e0       	ldi	r27, 0x00	; 0
    1696:	88 0f       	add	r24, r24
    1698:	99 1f       	adc	r25, r25
    169a:	aa 1f       	adc	r26, r26
    169c:	bb 1f       	adc	r27, r27
    169e:	88 0f       	add	r24, r24
    16a0:	99 1f       	adc	r25, r25
    16a2:	aa 1f       	adc	r26, r26
    16a4:	bb 1f       	adc	r27, r27
    16a6:	88 0f       	add	r24, r24
    16a8:	99 1f       	adc	r25, r25
    16aa:	aa 1f       	adc	r26, r26
    16ac:	bb 1f       	adc	r27, r27
    16ae:	9c 01       	movw	r18, r24
    16b0:	ad 01       	movw	r20, r26
    16b2:	80 e4       	ldi	r24, 0x40	; 64
    16b4:	92 e4       	ldi	r25, 0x42	; 66
    16b6:	af e0       	ldi	r26, 0x0F	; 15
    16b8:	b0 e0       	ldi	r27, 0x00	; 0
    16ba:	bc 01       	movw	r22, r24
    16bc:	cd 01       	movw	r24, r26
    16be:	0e 94 0c 0c 	call	0x1818	; 0x1818 <__udivmodsi4>
    16c2:	da 01       	movw	r26, r20
    16c4:	c9 01       	movw	r24, r18
    16c6:	01 97       	sbiw	r24, 0x01	; 1
    16c8:	9a 83       	std	Y+2, r25	; 0x02
    16ca:	89 83       	std	Y+1, r24	; 0x01

	/* First 8 bits from the BAUD_PRESCALE inside UBRRL and last 4 bits in UBRRH*/
	UBRRH = ubrr_value>>8;
    16cc:	e0 e4       	ldi	r30, 0x40	; 64
    16ce:	f0 e0       	ldi	r31, 0x00	; 0
    16d0:	89 81       	ldd	r24, Y+1	; 0x01
    16d2:	9a 81       	ldd	r25, Y+2	; 0x02
    16d4:	89 2f       	mov	r24, r25
    16d6:	99 27       	eor	r25, r25
    16d8:	80 83       	st	Z, r24
	UBRRL = ubrr_value;
    16da:	e9 e2       	ldi	r30, 0x29	; 41
    16dc:	f0 e0       	ldi	r31, 0x00	; 0
    16de:	89 81       	ldd	r24, Y+1	; 0x01
    16e0:	80 83       	st	Z, r24
}
    16e2:	26 96       	adiw	r28, 0x06	; 6
    16e4:	0f b6       	in	r0, 0x3f	; 63
    16e6:	f8 94       	cli
    16e8:	de bf       	out	0x3e, r29	; 62
    16ea:	0f be       	out	0x3f, r0	; 63
    16ec:	cd bf       	out	0x3d, r28	; 61
    16ee:	cf 91       	pop	r28
    16f0:	df 91       	pop	r29
    16f2:	08 95       	ret

000016f4 <UART_sendByte>:
/*
 * Description :
 * Functional responsible for send byte to another UART device.
 */
void UART_sendByte(const uint8 data)
{
    16f4:	df 93       	push	r29
    16f6:	cf 93       	push	r28
    16f8:	0f 92       	push	r0
    16fa:	cd b7       	in	r28, 0x3d	; 61
    16fc:	de b7       	in	r29, 0x3e	; 62
    16fe:	89 83       	std	Y+1, r24	; 0x01
	/*
	 * UDRE flag is set when the Tx buffer (UDR) is empty and ready for
	 * transmitting a new byte so wait until this flag is set to one
	 */
	while(BIT_IS_CLEAR(UCSRA,UDRE)){}
    1700:	eb e2       	ldi	r30, 0x2B	; 43
    1702:	f0 e0       	ldi	r31, 0x00	; 0
    1704:	80 81       	ld	r24, Z
    1706:	88 2f       	mov	r24, r24
    1708:	90 e0       	ldi	r25, 0x00	; 0
    170a:	80 72       	andi	r24, 0x20	; 32
    170c:	90 70       	andi	r25, 0x00	; 0
    170e:	00 97       	sbiw	r24, 0x00	; 0
    1710:	b9 f3       	breq	.-18     	; 0x1700 <UART_sendByte+0xc>

	/*
	 * Put the required data in the UDR register and it also clear the UDRE flag as
	 * the UDR register is not empty now
	 */
	UDR = data;
    1712:	ec e2       	ldi	r30, 0x2C	; 44
    1714:	f0 e0       	ldi	r31, 0x00	; 0
    1716:	89 81       	ldd	r24, Y+1	; 0x01
    1718:	80 83       	st	Z, r24
	/************************* Another Method *************************
	UDR = data;
	while(BIT_IS_CLEAR(UCSRA,TXC)){} // Wait until the transmission is complete TXC = 1
	SET_BIT(UCSRA,TXC); // Clear the TXC flag
	*******************************************************************/
}
    171a:	0f 90       	pop	r0
    171c:	cf 91       	pop	r28
    171e:	df 91       	pop	r29
    1720:	08 95       	ret

00001722 <UART_recieveByte>:
/*
 * Description :
 * Functional responsible for receive byte from another UART device.
 */
uint8 UART_recieveByte(void)
{
    1722:	df 93       	push	r29
    1724:	cf 93       	push	r28
    1726:	cd b7       	in	r28, 0x3d	; 61
    1728:	de b7       	in	r29, 0x3e	; 62
	/* RXC flag is set when the UART receive data so wait until this flag is set to one */
	while(BIT_IS_CLEAR(UCSRA,RXC)){}
    172a:	eb e2       	ldi	r30, 0x2B	; 43
    172c:	f0 e0       	ldi	r31, 0x00	; 0
    172e:	80 81       	ld	r24, Z
    1730:	88 23       	and	r24, r24
    1732:	dc f7       	brge	.-10     	; 0x172a <UART_recieveByte+0x8>

	/*
	 * Read the received data from the Rx buffer (UDR)
	 * The RXC flag will be cleared after read the data
	 */
    return UDR;		
    1734:	ec e2       	ldi	r30, 0x2C	; 44
    1736:	f0 e0       	ldi	r31, 0x00	; 0
    1738:	80 81       	ld	r24, Z
}
    173a:	cf 91       	pop	r28
    173c:	df 91       	pop	r29
    173e:	08 95       	ret

00001740 <UART_sendString>:
/*
 * Description :
 * Send the required string through UART to the other UART device.
 */
void UART_sendString(const uint8 *Str)
{
    1740:	df 93       	push	r29
    1742:	cf 93       	push	r28
    1744:	00 d0       	rcall	.+0      	; 0x1746 <UART_sendString+0x6>
    1746:	0f 92       	push	r0
    1748:	cd b7       	in	r28, 0x3d	; 61
    174a:	de b7       	in	r29, 0x3e	; 62
    174c:	9b 83       	std	Y+3, r25	; 0x03
    174e:	8a 83       	std	Y+2, r24	; 0x02
	uint8 i = 0;
    1750:	19 82       	std	Y+1, r1	; 0x01
    1752:	0e c0       	rjmp	.+28     	; 0x1770 <UART_sendString+0x30>

	/* Send the whole string */
	while(Str[i] != '\0')
	{
		UART_sendByte(Str[i]);
    1754:	89 81       	ldd	r24, Y+1	; 0x01
    1756:	28 2f       	mov	r18, r24
    1758:	30 e0       	ldi	r19, 0x00	; 0
    175a:	8a 81       	ldd	r24, Y+2	; 0x02
    175c:	9b 81       	ldd	r25, Y+3	; 0x03
    175e:	fc 01       	movw	r30, r24
    1760:	e2 0f       	add	r30, r18
    1762:	f3 1f       	adc	r31, r19
    1764:	80 81       	ld	r24, Z
    1766:	0e 94 7a 0b 	call	0x16f4	; 0x16f4 <UART_sendByte>
		i++;
    176a:	89 81       	ldd	r24, Y+1	; 0x01
    176c:	8f 5f       	subi	r24, 0xFF	; 255
    176e:	89 83       	std	Y+1, r24	; 0x01
void UART_sendString(const uint8 *Str)
{
	uint8 i = 0;

	/* Send the whole string */
	while(Str[i] != '\0')
    1770:	89 81       	ldd	r24, Y+1	; 0x01
    1772:	28 2f       	mov	r18, r24
    1774:	30 e0       	ldi	r19, 0x00	; 0
    1776:	8a 81       	ldd	r24, Y+2	; 0x02
    1778:	9b 81       	ldd	r25, Y+3	; 0x03
    177a:	fc 01       	movw	r30, r24
    177c:	e2 0f       	add	r30, r18
    177e:	f3 1f       	adc	r31, r19
    1780:	80 81       	ld	r24, Z
    1782:	88 23       	and	r24, r24
    1784:	39 f7       	brne	.-50     	; 0x1754 <UART_sendString+0x14>
	{
		UART_sendByte(*Str);
		Str++;
	}		
	*******************************************************************/
}
    1786:	0f 90       	pop	r0
    1788:	0f 90       	pop	r0
    178a:	0f 90       	pop	r0
    178c:	cf 91       	pop	r28
    178e:	df 91       	pop	r29
    1790:	08 95       	ret

00001792 <UART_receiveString>:
/*
 * Description :
 * Receive the required string until the '#' symbol through UART from the other UART device.
 */
void UART_receiveString(uint8 *Str)
{
    1792:	0f 93       	push	r16
    1794:	1f 93       	push	r17
    1796:	df 93       	push	r29
    1798:	cf 93       	push	r28
    179a:	00 d0       	rcall	.+0      	; 0x179c <UART_receiveString+0xa>
    179c:	0f 92       	push	r0
    179e:	cd b7       	in	r28, 0x3d	; 61
    17a0:	de b7       	in	r29, 0x3e	; 62
    17a2:	9b 83       	std	Y+3, r25	; 0x03
    17a4:	8a 83       	std	Y+2, r24	; 0x02
	uint8 i = 0;
    17a6:	19 82       	std	Y+1, r1	; 0x01

	/* Receive the first byte */
	Str[i] = UART_recieveByte();
    17a8:	89 81       	ldd	r24, Y+1	; 0x01
    17aa:	28 2f       	mov	r18, r24
    17ac:	30 e0       	ldi	r19, 0x00	; 0
    17ae:	8a 81       	ldd	r24, Y+2	; 0x02
    17b0:	9b 81       	ldd	r25, Y+3	; 0x03
    17b2:	8c 01       	movw	r16, r24
    17b4:	02 0f       	add	r16, r18
    17b6:	13 1f       	adc	r17, r19
    17b8:	0e 94 91 0b 	call	0x1722	; 0x1722 <UART_recieveByte>
    17bc:	f8 01       	movw	r30, r16
    17be:	80 83       	st	Z, r24
    17c0:	0f c0       	rjmp	.+30     	; 0x17e0 <UART_receiveString+0x4e>

	/* Receive the whole string until the '#' */
	while(Str[i] != '#')
	{
		i++;
    17c2:	89 81       	ldd	r24, Y+1	; 0x01
    17c4:	8f 5f       	subi	r24, 0xFF	; 255
    17c6:	89 83       	std	Y+1, r24	; 0x01
		Str[i] = UART_recieveByte();
    17c8:	89 81       	ldd	r24, Y+1	; 0x01
    17ca:	28 2f       	mov	r18, r24
    17cc:	30 e0       	ldi	r19, 0x00	; 0
    17ce:	8a 81       	ldd	r24, Y+2	; 0x02
    17d0:	9b 81       	ldd	r25, Y+3	; 0x03
    17d2:	8c 01       	movw	r16, r24
    17d4:	02 0f       	add	r16, r18
    17d6:	13 1f       	adc	r17, r19
    17d8:	0e 94 91 0b 	call	0x1722	; 0x1722 <UART_recieveByte>
    17dc:	f8 01       	movw	r30, r16
    17de:	80 83       	st	Z, r24

	/* Receive the first byte */
	Str[i] = UART_recieveByte();

	/* Receive the whole string until the '#' */
	while(Str[i] != '#')
    17e0:	89 81       	ldd	r24, Y+1	; 0x01
    17e2:	28 2f       	mov	r18, r24
    17e4:	30 e0       	ldi	r19, 0x00	; 0
    17e6:	8a 81       	ldd	r24, Y+2	; 0x02
    17e8:	9b 81       	ldd	r25, Y+3	; 0x03
    17ea:	fc 01       	movw	r30, r24
    17ec:	e2 0f       	add	r30, r18
    17ee:	f3 1f       	adc	r31, r19
    17f0:	80 81       	ld	r24, Z
    17f2:	83 32       	cpi	r24, 0x23	; 35
    17f4:	31 f7       	brne	.-52     	; 0x17c2 <UART_receiveString+0x30>
		i++;
		Str[i] = UART_recieveByte();
	}

	/* After receiving the whole string plus the '#', replace the '#' with '\0' */
	Str[i] = '\0';
    17f6:	89 81       	ldd	r24, Y+1	; 0x01
    17f8:	28 2f       	mov	r18, r24
    17fa:	30 e0       	ldi	r19, 0x00	; 0
    17fc:	8a 81       	ldd	r24, Y+2	; 0x02
    17fe:	9b 81       	ldd	r25, Y+3	; 0x03
    1800:	fc 01       	movw	r30, r24
    1802:	e2 0f       	add	r30, r18
    1804:	f3 1f       	adc	r31, r19
    1806:	10 82       	st	Z, r1
}
    1808:	0f 90       	pop	r0
    180a:	0f 90       	pop	r0
    180c:	0f 90       	pop	r0
    180e:	cf 91       	pop	r28
    1810:	df 91       	pop	r29
    1812:	1f 91       	pop	r17
    1814:	0f 91       	pop	r16
    1816:	08 95       	ret

00001818 <__udivmodsi4>:
    1818:	a1 e2       	ldi	r26, 0x21	; 33
    181a:	1a 2e       	mov	r1, r26
    181c:	aa 1b       	sub	r26, r26
    181e:	bb 1b       	sub	r27, r27
    1820:	fd 01       	movw	r30, r26
    1822:	0d c0       	rjmp	.+26     	; 0x183e <__udivmodsi4_ep>

00001824 <__udivmodsi4_loop>:
    1824:	aa 1f       	adc	r26, r26
    1826:	bb 1f       	adc	r27, r27
    1828:	ee 1f       	adc	r30, r30
    182a:	ff 1f       	adc	r31, r31
    182c:	a2 17       	cp	r26, r18
    182e:	b3 07       	cpc	r27, r19
    1830:	e4 07       	cpc	r30, r20
    1832:	f5 07       	cpc	r31, r21
    1834:	20 f0       	brcs	.+8      	; 0x183e <__udivmodsi4_ep>
    1836:	a2 1b       	sub	r26, r18
    1838:	b3 0b       	sbc	r27, r19
    183a:	e4 0b       	sbc	r30, r20
    183c:	f5 0b       	sbc	r31, r21

0000183e <__udivmodsi4_ep>:
    183e:	66 1f       	adc	r22, r22
    1840:	77 1f       	adc	r23, r23
    1842:	88 1f       	adc	r24, r24
    1844:	99 1f       	adc	r25, r25
    1846:	1a 94       	dec	r1
    1848:	69 f7       	brne	.-38     	; 0x1824 <__udivmodsi4_loop>
    184a:	60 95       	com	r22
    184c:	70 95       	com	r23
    184e:	80 95       	com	r24
    1850:	90 95       	com	r25
    1852:	9b 01       	movw	r18, r22
    1854:	ac 01       	movw	r20, r24
    1856:	bd 01       	movw	r22, r26
    1858:	cf 01       	movw	r24, r30
    185a:	08 95       	ret

0000185c <_exit>:
    185c:	f8 94       	cli

0000185e <__stop_program>:
    185e:	ff cf       	rjmp	.-2      	; 0x185e <__stop_program>
